

Microchip Technology PIC LITE Macro Assembler V1.12 build 49521 
                                                                                               Sun Aug 24 17:54:22 2014

HI-TECH Software Omniscient Code Generator (Lite mode) build 49521
     1  0000                     opt subtitle "HI-TECH Software Omniscient Code Generator (Lite mode) build 49521"
     2                           opt subtitle "HI-TECH Software Omniscient Code Generator (Lite mode) build 49521"
     3                           
     4                           opt pagewidth 120
     5                           
     6                           	opt lm
     7                           
     8                           	processor	16F88
     9                           clrc	macro
    10  0000                     	endm
    11                           opt subtitle "HI-TECH Software Omniscient Code Generator (Lite mode) build 49521"
    12                           
    13  0000                     	endm
    14                           opt subtitle "HI-TECH Software Omniscient Code Generator (Lite mode) build 49521"
    15                           
    16  0000                     	endm
    17                           opt subtitle "HI-TECH Software Omniscient Code Generator (Lite mode) build 49521"
    18                           
    19  0000                     	endm
    20                           opt subtitle "HI-TECH Software Omniscient Code Generator (Lite mode) build 49521"
    21                           
    22  0000                     	endm
    23                           opt subtitle "HI-TECH Software Omniscient Code Generator (Lite mode) build 49521"
    24                           
    25  0000                     	endm
    26                           opt subtitle "HI-TECH Software Omniscient Code Generator (Lite mode) build 49521"
    27                           
    28  0000                     	endm
    29                           opt subtitle "HI-TECH Software Omniscient Code Generator (Lite mode) build 49521"
    30                           
    31  0000                     	endm
    32  0000                     indf	equ	0
    33  0000                     indf0	equ	0
    34  0002                     pc	equ	2
    35  0002                     pcl	equ	2
    36  0003                     status	equ	3
    37  0004                     fsr	equ	4
    38  0004                     fsr0	equ	4
    39  0001                     c	equ	1
    40  0000                     z	equ	0
    41  000A                     pclath	equ	10
    42                           opt subtitle "HI-TECH Software Omniscient Code Generator (Lite mode) build 49521"
    43  0000                     INDF equ 00h ;# 
    44                           opt subtitle "HI-TECH Software Omniscient Code Generator (Lite mode) build 49521"
    45  0001                     TMR0 equ 01h ;# 
    46                           opt subtitle "HI-TECH Software Omniscient Code Generator (Lite mode) build 49521"
    47  0002                     PCL equ 02h ;# 
    48                           opt subtitle "HI-TECH Software Omniscient Code Generator (Lite mode) build 49521"
    49  0003                     STATUS equ 03h ;# 
    50                           opt subtitle "HI-TECH Software Omniscient Code Generator (Lite mode) build 49521"
    51  0004                     FSR equ 04h ;# 
    52                           opt subtitle "HI-TECH Software Omniscient Code Generator (Lite mode) build 49521"
    53  0005                     PORTA equ 05h ;# 
    54                           opt subtitle "HI-TECH Software Omniscient Code Generator (Lite mode) build 49521"
    55  0006                     PORTB equ 06h ;# 
    56                           opt subtitle "HI-TECH Software Omniscient Code Generator (Lite mode) build 49521"
    57  000A                     PCLATH equ 0Ah ;# 
    58                           opt subtitle "HI-TECH Software Omniscient Code Generator (Lite mode) build 49521"
    59  000B                     INTCON equ 0Bh ;# 
    60                           opt subtitle "HI-TECH Software Omniscient Code Generator (Lite mode) build 49521"
    61  000C                     PIR1 equ 0Ch ;# 
    62                           opt subtitle "HI-TECH Software Omniscient Code Generator (Lite mode) build 49521"
    63  000D                     PIR2 equ 0Dh ;# 
    64                           opt subtitle "HI-TECH Software Omniscient Code Generator (Lite mode) build 49521"
    65  000E                     TMR1 equ 0Eh ;# 
    66                           opt subtitle "HI-TECH Software Omniscient Code Generator (Lite mode) build 49521"
    67  000E                     TMR1L equ 0Eh ;# 
    68                           opt subtitle "HI-TECH Software Omniscient Code Generator (Lite mode) build 49521"
    69  000F                     TMR1H equ 0Fh ;# 
    70                           opt subtitle "HI-TECH Software Omniscient Code Generator (Lite mode) build 49521"
    71  0010                     T1CON equ 010h ;# 
    72                           opt subtitle "HI-TECH Software Omniscient Code Generator (Lite mode) build 49521"
    73  0011                     TMR2 equ 011h ;# 
    74                           opt subtitle "HI-TECH Software Omniscient Code Generator (Lite mode) build 49521"
    75  0012                     T2CON equ 012h ;# 
    76                           opt subtitle "HI-TECH Software Omniscient Code Generator (Lite mode) build 49521"
    77  0013                     SSPBUF equ 013h ;# 
    78                           opt subtitle "HI-TECH Software Omniscient Code Generator (Lite mode) build 49521"
    79  0014                     SSPCON equ 014h ;# 
    80                           opt subtitle "HI-TECH Software Omniscient Code Generator (Lite mode) build 49521"
    81  0015                     CCPR1 equ 015h ;# 
    82                           opt subtitle "HI-TECH Software Omniscient Code Generator (Lite mode) build 49521"
    83  0015                     CCPR1L equ 015h ;# 
    84                           opt subtitle "HI-TECH Software Omniscient Code Generator (Lite mode) build 49521"
    85  0016                     CCPR1H equ 016h ;# 
    86                           opt subtitle "HI-TECH Software Omniscient Code Generator (Lite mode) build 49521"
    87  0017                     CCP1CON equ 017h ;# 
    88                           opt subtitle "HI-TECH Software Omniscient Code Generator (Lite mode) build 49521"
    89  0018                     RCSTA equ 018h ;# 
    90                           opt subtitle "HI-TECH Software Omniscient Code Generator (Lite mode) build 49521"
    91  0019                     TXREG equ 019h ;# 
    92                           opt subtitle "HI-TECH Software Omniscient Code Generator (Lite mode) build 49521"
    93  001A                     RCREG equ 01Ah ;# 
    94                           opt subtitle "HI-TECH Software Omniscient Code Generator (Lite mode) build 49521"
    95  001E                     ADRESH equ 01Eh ;# 
    96                           opt subtitle "HI-TECH Software Omniscient Code Generator (Lite mode) build 49521"
    97  001F                     ADCON0 equ 01Fh ;# 
    98                           opt subtitle "HI-TECH Software Omniscient Code Generator (Lite mode) build 49521"
    99  0081                     OPTION_REG equ 081h ;# 
   100                           opt subtitle "HI-TECH Software Omniscient Code Generator (Lite mode) build 49521"
   101  0085                     TRISA equ 085h ;# 
   102                           opt subtitle "HI-TECH Software Omniscient Code Generator (Lite mode) build 49521"
   103  0086                     TRISB equ 086h ;# 
   104                           opt subtitle "HI-TECH Software Omniscient Code Generator (Lite mode) build 49521"
   105  008C                     PIE1 equ 08Ch ;# 
   106                           opt subtitle "HI-TECH Software Omniscient Code Generator (Lite mode) build 49521"
   107  008D                     PIE2 equ 08Dh ;# 
   108                           opt subtitle "HI-TECH Software Omniscient Code Generator (Lite mode) build 49521"
   109  008E                     PCON equ 08Eh ;# 
   110                           opt subtitle "HI-TECH Software Omniscient Code Generator (Lite mode) build 49521"
   111  008F                     OSCCON equ 08Fh ;# 
   112                           opt subtitle "HI-TECH Software Omniscient Code Generator (Lite mode) build 49521"
   113  0090                     OSCTUNE equ 090h ;# 
   114                           opt subtitle "HI-TECH Software Omniscient Code Generator (Lite mode) build 49521"
   115  0092                     PR2 equ 092h ;# 
   116                           opt subtitle "HI-TECH Software Omniscient Code Generator (Lite mode) build 49521"
   117  0093                     SSPADD equ 093h ;# 
   118                           opt subtitle "HI-TECH Software Omniscient Code Generator (Lite mode) build 49521"
   119  0094                     SSPSTAT equ 094h ;# 
   120                           opt subtitle "HI-TECH Software Omniscient Code Generator (Lite mode) build 49521"
   121  0098                     TXSTA equ 098h ;# 
   122                           opt subtitle "HI-TECH Software Omniscient Code Generator (Lite mode) build 49521"
   123  0099                     SPBRG equ 099h ;# 
   124                           opt subtitle "HI-TECH Software Omniscient Code Generator (Lite mode) build 49521"
   125  009B                     ANSEL equ 09Bh ;# 
   126                           opt subtitle "HI-TECH Software Omniscient Code Generator (Lite mode) build 49521"
   127  009C                     CMCON equ 09Ch ;# 
   128                           opt subtitle "HI-TECH Software Omniscient Code Generator (Lite mode) build 49521"
   129  009D                     CVRCON equ 09Dh ;# 
   130                           opt subtitle "HI-TECH Software Omniscient Code Generator (Lite mode) build 49521"
   131  009E                     ADRESL equ 09Eh ;# 
   132                           opt subtitle "HI-TECH Software Omniscient Code Generator (Lite mode) build 49521"
   133  009F                     ADCON1 equ 09Fh ;# 
   134                           opt subtitle "HI-TECH Software Omniscient Code Generator (Lite mode) build 49521"
   135  0105                     WDTCON equ 0105h ;# 
   136                           opt subtitle "HI-TECH Software Omniscient Code Generator (Lite mode) build 49521"
   137  010C                     EEDATA equ 010Ch ;# 
   138                           opt subtitle "HI-TECH Software Omniscient Code Generator (Lite mode) build 49521"
   139  010D                     EEADR equ 010Dh ;# 
   140                           opt subtitle "HI-TECH Software Omniscient Code Generator (Lite mode) build 49521"
   141  010E                     EEDATH equ 010Eh ;# 
   142                           opt subtitle "HI-TECH Software Omniscient Code Generator (Lite mode) build 49521"
   143  010F                     EEADRH equ 010Fh ;# 
   144                           opt subtitle "HI-TECH Software Omniscient Code Generator (Lite mode) build 49521"
   145  018C                     EECON1 equ 018Ch ;# 
   146                           opt subtitle "HI-TECH Software Omniscient Code Generator (Lite mode) build 49521"
   147  018D                     EECON2 equ 018Dh ;# 
   148                           opt subtitle "HI-TECH Software Omniscient Code Generator (Lite mode) build 49521"
   149  0000                     INDF equ 00h ;# 
   150                           opt subtitle "HI-TECH Software Omniscient Code Generator (Lite mode) build 49521"
   151  0001                     TMR0 equ 01h ;# 
   152                           opt subtitle "HI-TECH Software Omniscient Code Generator (Lite mode) build 49521"
   153  0002                     PCL equ 02h ;# 
   154                           opt subtitle "HI-TECH Software Omniscient Code Generator (Lite mode) build 49521"
   155  0003                     STATUS equ 03h ;# 
   156                           opt subtitle "HI-TECH Software Omniscient Code Generator (Lite mode) build 49521"
   157  0004                     FSR equ 04h ;# 
   158                           opt subtitle "HI-TECH Software Omniscient Code Generator (Lite mode) build 49521"
   159  0005                     PORTA equ 05h ;# 
   160                           opt subtitle "HI-TECH Software Omniscient Code Generator (Lite mode) build 49521"
   161  0006                     PORTB equ 06h ;# 
   162                           opt subtitle "HI-TECH Software Omniscient Code Generator (Lite mode) build 49521"
   163  000A                     PCLATH equ 0Ah ;# 
   164                           opt subtitle "HI-TECH Software Omniscient Code Generator (Lite mode) build 49521"
   165  000B                     INTCON equ 0Bh ;# 
   166                           opt subtitle "HI-TECH Software Omniscient Code Generator (Lite mode) build 49521"
   167  000C                     PIR1 equ 0Ch ;# 
   168                           opt subtitle "HI-TECH Software Omniscient Code Generator (Lite mode) build 49521"
   169  000D                     PIR2 equ 0Dh ;# 
   170                           opt subtitle "HI-TECH Software Omniscient Code Generator (Lite mode) build 49521"
   171  000E                     TMR1 equ 0Eh ;# 
   172                           opt subtitle "HI-TECH Software Omniscient Code Generator (Lite mode) build 49521"
   173  000E                     TMR1L equ 0Eh ;# 
   174                           opt subtitle "HI-TECH Software Omniscient Code Generator (Lite mode) build 49521"
   175  000F                     TMR1H equ 0Fh ;# 
   176                           opt subtitle "HI-TECH Software Omniscient Code Generator (Lite mode) build 49521"
   177  0010                     T1CON equ 010h ;# 
   178                           opt subtitle "HI-TECH Software Omniscient Code Generator (Lite mode) build 49521"
   179  0011                     TMR2 equ 011h ;# 
   180                           opt subtitle "HI-TECH Software Omniscient Code Generator (Lite mode) build 49521"
   181  0012                     T2CON equ 012h ;# 
   182                           opt subtitle "HI-TECH Software Omniscient Code Generator (Lite mode) build 49521"
   183  0013                     SSPBUF equ 013h ;# 
   184                           opt subtitle "HI-TECH Software Omniscient Code Generator (Lite mode) build 49521"
   185  0014                     SSPCON equ 014h ;# 
   186                           opt subtitle "HI-TECH Software Omniscient Code Generator (Lite mode) build 49521"
   187  0015                     CCPR1 equ 015h ;# 
   188                           opt subtitle "HI-TECH Software Omniscient Code Generator (Lite mode) build 49521"
   189  0015                     CCPR1L equ 015h ;# 
   190                           opt subtitle "HI-TECH Software Omniscient Code Generator (Lite mode) build 49521"
   191  0016                     CCPR1H equ 016h ;# 
   192                           opt subtitle "HI-TECH Software Omniscient Code Generator (Lite mode) build 49521"
   193  0017                     CCP1CON equ 017h ;# 
   194                           opt subtitle "HI-TECH Software Omniscient Code Generator (Lite mode) build 49521"
   195  0018                     RCSTA equ 018h ;# 
   196                           opt subtitle "HI-TECH Software Omniscient Code Generator (Lite mode) build 49521"
   197  0019                     TXREG equ 019h ;# 
   198                           opt subtitle "HI-TECH Software Omniscient Code Generator (Lite mode) build 49521"
   199  001A                     RCREG equ 01Ah ;# 
   200                           opt subtitle "HI-TECH Software Omniscient Code Generator (Lite mode) build 49521"
   201  001E                     ADRESH equ 01Eh ;# 
   202                           opt subtitle "HI-TECH Software Omniscient Code Generator (Lite mode) build 49521"
   203  001F                     ADCON0 equ 01Fh ;# 
   204                           opt subtitle "HI-TECH Software Omniscient Code Generator (Lite mode) build 49521"
   205  0081                     OPTION_REG equ 081h ;# 
   206                           opt subtitle "HI-TECH Software Omniscient Code Generator (Lite mode) build 49521"
   207  0085                     TRISA equ 085h ;# 
   208                           opt subtitle "HI-TECH Software Omniscient Code Generator (Lite mode) build 49521"
   209  0086                     TRISB equ 086h ;# 
   210                           opt subtitle "HI-TECH Software Omniscient Code Generator (Lite mode) build 49521"
   211  008C                     PIE1 equ 08Ch ;# 
   212                           opt subtitle "HI-TECH Software Omniscient Code Generator (Lite mode) build 49521"
   213  008D                     PIE2 equ 08Dh ;# 
   214                           opt subtitle "HI-TECH Software Omniscient Code Generator (Lite mode) build 49521"
   215  008E                     PCON equ 08Eh ;# 
   216                           opt subtitle "HI-TECH Software Omniscient Code Generator (Lite mode) build 49521"
   217  008F                     OSCCON equ 08Fh ;# 
   218                           opt subtitle "HI-TECH Software Omniscient Code Generator (Lite mode) build 49521"
   219  0090                     OSCTUNE equ 090h ;# 
   220                           opt subtitle "HI-TECH Software Omniscient Code Generator (Lite mode) build 49521"
   221  0092                     PR2 equ 092h ;# 
   222                           opt subtitle "HI-TECH Software Omniscient Code Generator (Lite mode) build 49521"
   223  0093                     SSPADD equ 093h ;# 
   224                           opt subtitle "HI-TECH Software Omniscient Code Generator (Lite mode) build 49521"
   225  0094                     SSPSTAT equ 094h ;# 
   226                           opt subtitle "HI-TECH Software Omniscient Code Generator (Lite mode) build 49521"
   227  0098                     TXSTA equ 098h ;# 
   228                           opt subtitle "HI-TECH Software Omniscient Code Generator (Lite mode) build 49521"
   229  0099                     SPBRG equ 099h ;# 
   230                           opt subtitle "HI-TECH Software Omniscient Code Generator (Lite mode) build 49521"
   231  009B                     ANSEL equ 09Bh ;# 
   232                           opt subtitle "HI-TECH Software Omniscient Code Generator (Lite mode) build 49521"
   233  009C                     CMCON equ 09Ch ;# 
   234                           opt subtitle "HI-TECH Software Omniscient Code Generator (Lite mode) build 49521"
   235  009D                     CVRCON equ 09Dh ;# 
   236                           opt subtitle "HI-TECH Software Omniscient Code Generator (Lite mode) build 49521"
   237  009E                     ADRESL equ 09Eh ;# 
   238                           opt subtitle "HI-TECH Software Omniscient Code Generator (Lite mode) build 49521"
   239  009F                     ADCON1 equ 09Fh ;# 
   240                           opt subtitle "HI-TECH Software Omniscient Code Generator (Lite mode) build 49521"
   241  0105                     WDTCON equ 0105h ;# 
   242                           opt subtitle "HI-TECH Software Omniscient Code Generator (Lite mode) build 49521"
   243  010C                     EEDATA equ 010Ch ;# 
   244                           opt subtitle "HI-TECH Software Omniscient Code Generator (Lite mode) build 49521"
   245  010D                     EEADR equ 010Dh ;# 
   246                           opt subtitle "HI-TECH Software Omniscient Code Generator (Lite mode) build 49521"
   247  010E                     EEDATH equ 010Eh ;# 
   248                           opt subtitle "HI-TECH Software Omniscient Code Generator (Lite mode) build 49521"
   249  010F                     EEADRH equ 010Fh ;# 
   250                           opt subtitle "HI-TECH Software Omniscient Code Generator (Lite mode) build 49521"
   251  018C                     EECON1 equ 018Ch ;# 
   252                           opt subtitle "HI-TECH Software Omniscient Code Generator (Lite mode) build 49521"
   253  018D                     EECON2 equ 018Dh ;# 
   254                           opt subtitle "HI-TECH Software Omniscient Code Generator (Lite mode) build 49521"
   255  0000                     INDF equ 00h ;# 
   256                           opt subtitle "HI-TECH Software Omniscient Code Generator (Lite mode) build 49521"
   257  0001                     TMR0 equ 01h ;# 
   258                           opt subtitle "HI-TECH Software Omniscient Code Generator (Lite mode) build 49521"
   259  0002                     PCL equ 02h ;# 
   260                           opt subtitle "HI-TECH Software Omniscient Code Generator (Lite mode) build 49521"
   261  0003                     STATUS equ 03h ;# 
   262                           opt subtitle "HI-TECH Software Omniscient Code Generator (Lite mode) build 49521"
   263  0004                     FSR equ 04h ;# 
   264                           opt subtitle "HI-TECH Software Omniscient Code Generator (Lite mode) build 49521"
   265  0005                     PORTA equ 05h ;# 
   266                           opt subtitle "HI-TECH Software Omniscient Code Generator (Lite mode) build 49521"
   267  0006                     PORTB equ 06h ;# 
   268                           opt subtitle "HI-TECH Software Omniscient Code Generator (Lite mode) build 49521"
   269  000A                     PCLATH equ 0Ah ;# 
   270                           opt subtitle "HI-TECH Software Omniscient Code Generator (Lite mode) build 49521"
   271  000B                     INTCON equ 0Bh ;# 
   272                           opt subtitle "HI-TECH Software Omniscient Code Generator (Lite mode) build 49521"
   273  000C                     PIR1 equ 0Ch ;# 
   274                           opt subtitle "HI-TECH Software Omniscient Code Generator (Lite mode) build 49521"
   275  000D                     PIR2 equ 0Dh ;# 
   276                           opt subtitle "HI-TECH Software Omniscient Code Generator (Lite mode) build 49521"
   277  000E                     TMR1 equ 0Eh ;# 
   278                           opt subtitle "HI-TECH Software Omniscient Code Generator (Lite mode) build 49521"
   279  000E                     TMR1L equ 0Eh ;# 
   280                           opt subtitle "HI-TECH Software Omniscient Code Generator (Lite mode) build 49521"
   281  000F                     TMR1H equ 0Fh ;# 
   282                           opt subtitle "HI-TECH Software Omniscient Code Generator (Lite mode) build 49521"
   283  0010                     T1CON equ 010h ;# 
   284                           opt subtitle "HI-TECH Software Omniscient Code Generator (Lite mode) build 49521"
   285  0011                     TMR2 equ 011h ;# 
   286                           opt subtitle "HI-TECH Software Omniscient Code Generator (Lite mode) build 49521"
   287  0012                     T2CON equ 012h ;# 
   288                           opt subtitle "HI-TECH Software Omniscient Code Generator (Lite mode) build 49521"
   289  0013                     SSPBUF equ 013h ;# 
   290                           opt subtitle "HI-TECH Software Omniscient Code Generator (Lite mode) build 49521"
   291  0014                     SSPCON equ 014h ;# 
   292                           opt subtitle "HI-TECH Software Omniscient Code Generator (Lite mode) build 49521"
   293  0015                     CCPR1 equ 015h ;# 
   294                           opt subtitle "HI-TECH Software Omniscient Code Generator (Lite mode) build 49521"
   295  0015                     CCPR1L equ 015h ;# 
   296                           opt subtitle "HI-TECH Software Omniscient Code Generator (Lite mode) build 49521"
   297  0016                     CCPR1H equ 016h ;# 
   298                           opt subtitle "HI-TECH Software Omniscient Code Generator (Lite mode) build 49521"
   299  0017                     CCP1CON equ 017h ;# 
   300                           opt subtitle "HI-TECH Software Omniscient Code Generator (Lite mode) build 49521"
   301  0018                     RCSTA equ 018h ;# 
   302                           opt subtitle "HI-TECH Software Omniscient Code Generator (Lite mode) build 49521"
   303  0019                     TXREG equ 019h ;# 
   304                           opt subtitle "HI-TECH Software Omniscient Code Generator (Lite mode) build 49521"
   305  001A                     RCREG equ 01Ah ;# 
   306                           opt subtitle "HI-TECH Software Omniscient Code Generator (Lite mode) build 49521"
   307  001E                     ADRESH equ 01Eh ;# 
   308                           opt subtitle "HI-TECH Software Omniscient Code Generator (Lite mode) build 49521"
   309  001F                     ADCON0 equ 01Fh ;# 
   310                           opt subtitle "HI-TECH Software Omniscient Code Generator (Lite mode) build 49521"
   311  0081                     OPTION_REG equ 081h ;# 
   312                           opt subtitle "HI-TECH Software Omniscient Code Generator (Lite mode) build 49521"
   313  0085                     TRISA equ 085h ;# 
   314                           opt subtitle "HI-TECH Software Omniscient Code Generator (Lite mode) build 49521"
   315  0086                     TRISB equ 086h ;# 
   316                           opt subtitle "HI-TECH Software Omniscient Code Generator (Lite mode) build 49521"
   317  008C                     PIE1 equ 08Ch ;# 
   318                           opt subtitle "HI-TECH Software Omniscient Code Generator (Lite mode) build 49521"
   319  008D                     PIE2 equ 08Dh ;# 
   320                           opt subtitle "HI-TECH Software Omniscient Code Generator (Lite mode) build 49521"
   321  008E                     PCON equ 08Eh ;# 
   322                           opt subtitle "HI-TECH Software Omniscient Code Generator (Lite mode) build 49521"
   323  008F                     OSCCON equ 08Fh ;# 
   324                           opt subtitle "HI-TECH Software Omniscient Code Generator (Lite mode) build 49521"
   325  0090                     OSCTUNE equ 090h ;# 
   326                           opt subtitle "HI-TECH Software Omniscient Code Generator (Lite mode) build 49521"
   327  0092                     PR2 equ 092h ;# 
   328                           opt subtitle "HI-TECH Software Omniscient Code Generator (Lite mode) build 49521"
   329  0093                     SSPADD equ 093h ;# 
   330                           opt subtitle "HI-TECH Software Omniscient Code Generator (Lite mode) build 49521"
   331  0094                     SSPSTAT equ 094h ;# 
   332                           opt subtitle "HI-TECH Software Omniscient Code Generator (Lite mode) build 49521"
   333  0098                     TXSTA equ 098h ;# 
   334                           opt subtitle "HI-TECH Software Omniscient Code Generator (Lite mode) build 49521"
   335  0099                     SPBRG equ 099h ;# 
   336                           opt subtitle "HI-TECH Software Omniscient Code Generator (Lite mode) build 49521"
   337  009B                     ANSEL equ 09Bh ;# 
   338                           opt subtitle "HI-TECH Software Omniscient Code Generator (Lite mode) build 49521"
   339  009C                     CMCON equ 09Ch ;# 
   340                           opt subtitle "HI-TECH Software Omniscient Code Generator (Lite mode) build 49521"
   341  009D                     CVRCON equ 09Dh ;# 
   342                           opt subtitle "HI-TECH Software Omniscient Code Generator (Lite mode) build 49521"
   343  009E                     ADRESL equ 09Eh ;# 
   344                           opt subtitle "HI-TECH Software Omniscient Code Generator (Lite mode) build 49521"
   345  009F                     ADCON1 equ 09Fh ;# 
   346                           opt subtitle "HI-TECH Software Omniscient Code Generator (Lite mode) build 49521"
   347  0105                     WDTCON equ 0105h ;# 
   348                           opt subtitle "HI-TECH Software Omniscient Code Generator (Lite mode) build 49521"
   349  010C                     EEDATA equ 010Ch ;# 
   350                           opt subtitle "HI-TECH Software Omniscient Code Generator (Lite mode) build 49521"
   351  010D                     EEADR equ 010Dh ;# 
   352                           opt subtitle "HI-TECH Software Omniscient Code Generator (Lite mode) build 49521"
   353  010E                     EEDATH equ 010Eh ;# 
   354                           opt subtitle "HI-TECH Software Omniscient Code Generator (Lite mode) build 49521"
   355  010F                     EEADRH equ 010Fh ;# 
   356                           opt subtitle "HI-TECH Software Omniscient Code Generator (Lite mode) build 49521"
   357  018C                     EECON1 equ 018Ch ;# 
   358                           opt subtitle "HI-TECH Software Omniscient Code Generator (Lite mode) build 49521"
   359  018D                     EECON2 equ 018Dh ;# 
   360                           opt subtitle "HI-TECH Software Omniscient Code Generator (Lite mode) build 49521"
   361  0000                     INDF equ 00h ;# 
   362                           opt subtitle "HI-TECH Software Omniscient Code Generator (Lite mode) build 49521"
   363  0001                     TMR0 equ 01h ;# 
   364                           opt subtitle "HI-TECH Software Omniscient Code Generator (Lite mode) build 49521"
   365  0002                     PCL equ 02h ;# 
   366                           opt subtitle "HI-TECH Software Omniscient Code Generator (Lite mode) build 49521"
   367  0003                     STATUS equ 03h ;# 
   368                           opt subtitle "HI-TECH Software Omniscient Code Generator (Lite mode) build 49521"
   369  0004                     FSR equ 04h ;# 
   370                           opt subtitle "HI-TECH Software Omniscient Code Generator (Lite mode) build 49521"
   371  0005                     PORTA equ 05h ;# 
   372                           opt subtitle "HI-TECH Software Omniscient Code Generator (Lite mode) build 49521"
   373  0006                     PORTB equ 06h ;# 
   374                           opt subtitle "HI-TECH Software Omniscient Code Generator (Lite mode) build 49521"
   375  000A                     PCLATH equ 0Ah ;# 
   376                           opt subtitle "HI-TECH Software Omniscient Code Generator (Lite mode) build 49521"
   377  000B                     INTCON equ 0Bh ;# 
   378                           opt subtitle "HI-TECH Software Omniscient Code Generator (Lite mode) build 49521"
   379  000C                     PIR1 equ 0Ch ;# 
   380                           opt subtitle "HI-TECH Software Omniscient Code Generator (Lite mode) build 49521"
   381  000D                     PIR2 equ 0Dh ;# 
   382                           opt subtitle "HI-TECH Software Omniscient Code Generator (Lite mode) build 49521"
   383  000E                     TMR1 equ 0Eh ;# 
   384                           opt subtitle "HI-TECH Software Omniscient Code Generator (Lite mode) build 49521"
   385  000E                     TMR1L equ 0Eh ;# 
   386                           opt subtitle "HI-TECH Software Omniscient Code Generator (Lite mode) build 49521"
   387  000F                     TMR1H equ 0Fh ;# 
   388                           opt subtitle "HI-TECH Software Omniscient Code Generator (Lite mode) build 49521"
   389  0010                     T1CON equ 010h ;# 
   390                           opt subtitle "HI-TECH Software Omniscient Code Generator (Lite mode) build 49521"
   391  0011                     TMR2 equ 011h ;# 
   392                           opt subtitle "HI-TECH Software Omniscient Code Generator (Lite mode) build 49521"
   393  0012                     T2CON equ 012h ;# 
   394                           opt subtitle "HI-TECH Software Omniscient Code Generator (Lite mode) build 49521"
   395  0013                     SSPBUF equ 013h ;# 
   396                           opt subtitle "HI-TECH Software Omniscient Code Generator (Lite mode) build 49521"
   397  0014                     SSPCON equ 014h ;# 
   398                           opt subtitle "HI-TECH Software Omniscient Code Generator (Lite mode) build 49521"
   399  0015                     CCPR1 equ 015h ;# 
   400                           opt subtitle "HI-TECH Software Omniscient Code Generator (Lite mode) build 49521"
   401  0015                     CCPR1L equ 015h ;# 
   402                           opt subtitle "HI-TECH Software Omniscient Code Generator (Lite mode) build 49521"
   403  0016                     CCPR1H equ 016h ;# 
   404                           opt subtitle "HI-TECH Software Omniscient Code Generator (Lite mode) build 49521"
   405  0017                     CCP1CON equ 017h ;# 
   406                           opt subtitle "HI-TECH Software Omniscient Code Generator (Lite mode) build 49521"
   407  0018                     RCSTA equ 018h ;# 
   408                           opt subtitle "HI-TECH Software Omniscient Code Generator (Lite mode) build 49521"
   409  0019                     TXREG equ 019h ;# 
   410                           opt subtitle "HI-TECH Software Omniscient Code Generator (Lite mode) build 49521"
   411  001A                     RCREG equ 01Ah ;# 
   412                           opt subtitle "HI-TECH Software Omniscient Code Generator (Lite mode) build 49521"
   413  001E                     ADRESH equ 01Eh ;# 
   414                           opt subtitle "HI-TECH Software Omniscient Code Generator (Lite mode) build 49521"
   415  001F                     ADCON0 equ 01Fh ;# 
   416                           opt subtitle "HI-TECH Software Omniscient Code Generator (Lite mode) build 49521"
   417  0081                     OPTION_REG equ 081h ;# 
   418                           opt subtitle "HI-TECH Software Omniscient Code Generator (Lite mode) build 49521"
   419  0085                     TRISA equ 085h ;# 
   420                           opt subtitle "HI-TECH Software Omniscient Code Generator (Lite mode) build 49521"
   421  0086                     TRISB equ 086h ;# 
   422                           opt subtitle "HI-TECH Software Omniscient Code Generator (Lite mode) build 49521"
   423  008C                     PIE1 equ 08Ch ;# 
   424                           opt subtitle "HI-TECH Software Omniscient Code Generator (Lite mode) build 49521"
   425  008D                     PIE2 equ 08Dh ;# 
   426                           opt subtitle "HI-TECH Software Omniscient Code Generator (Lite mode) build 49521"
   427  008E                     PCON equ 08Eh ;# 
   428                           opt subtitle "HI-TECH Software Omniscient Code Generator (Lite mode) build 49521"
   429  008F                     OSCCON equ 08Fh ;# 
   430                           opt subtitle "HI-TECH Software Omniscient Code Generator (Lite mode) build 49521"
   431  0090                     OSCTUNE equ 090h ;# 
   432                           opt subtitle "HI-TECH Software Omniscient Code Generator (Lite mode) build 49521"
   433  0092                     PR2 equ 092h ;# 
   434                           opt subtitle "HI-TECH Software Omniscient Code Generator (Lite mode) build 49521"
   435  0093                     SSPADD equ 093h ;# 
   436                           opt subtitle "HI-TECH Software Omniscient Code Generator (Lite mode) build 49521"
   437  0094                     SSPSTAT equ 094h ;# 
   438                           opt subtitle "HI-TECH Software Omniscient Code Generator (Lite mode) build 49521"
   439  0098                     TXSTA equ 098h ;# 
   440                           opt subtitle "HI-TECH Software Omniscient Code Generator (Lite mode) build 49521"
   441  0099                     SPBRG equ 099h ;# 
   442                           opt subtitle "HI-TECH Software Omniscient Code Generator (Lite mode) build 49521"
   443  009B                     ANSEL equ 09Bh ;# 
   444                           opt subtitle "HI-TECH Software Omniscient Code Generator (Lite mode) build 49521"
   445  009C                     CMCON equ 09Ch ;# 
   446                           opt subtitle "HI-TECH Software Omniscient Code Generator (Lite mode) build 49521"
   447  009D                     CVRCON equ 09Dh ;# 
   448                           opt subtitle "HI-TECH Software Omniscient Code Generator (Lite mode) build 49521"
   449  009E                     ADRESL equ 09Eh ;# 
   450                           opt subtitle "HI-TECH Software Omniscient Code Generator (Lite mode) build 49521"
   451  009F                     ADCON1 equ 09Fh ;# 
   452                           opt subtitle "HI-TECH Software Omniscient Code Generator (Lite mode) build 49521"
   453  0105                     WDTCON equ 0105h ;# 
   454                           opt subtitle "HI-TECH Software Omniscient Code Generator (Lite mode) build 49521"
   455  010C                     EEDATA equ 010Ch ;# 
   456                           opt subtitle "HI-TECH Software Omniscient Code Generator (Lite mode) build 49521"
   457  010D                     EEADR equ 010Dh ;# 
   458                           opt subtitle "HI-TECH Software Omniscient Code Generator (Lite mode) build 49521"
   459  010E                     EEDATH equ 010Eh ;# 
   460                           opt subtitle "HI-TECH Software Omniscient Code Generator (Lite mode) build 49521"
   461  010F                     EEADRH equ 010Fh ;# 
   462                           opt subtitle "HI-TECH Software Omniscient Code Generator (Lite mode) build 49521"
   463  018C                     EECON1 equ 018Ch ;# 
   464                           opt subtitle "HI-TECH Software Omniscient Code Generator (Lite mode) build 49521"
   465  018D                     EECON2 equ 018Dh ;# 
   466                           opt subtitle "HI-TECH Software Omniscient Code Generator (Lite mode) build 49521"
   467  0000                     INDF equ 00h ;# 
   468                           opt subtitle "HI-TECH Software Omniscient Code Generator (Lite mode) build 49521"
   469  0001                     TMR0 equ 01h ;# 
   470                           opt subtitle "HI-TECH Software Omniscient Code Generator (Lite mode) build 49521"
   471  0002                     PCL equ 02h ;# 
   472                           opt subtitle "HI-TECH Software Omniscient Code Generator (Lite mode) build 49521"
   473  0003                     STATUS equ 03h ;# 
   474                           opt subtitle "HI-TECH Software Omniscient Code Generator (Lite mode) build 49521"
   475  0004                     FSR equ 04h ;# 
   476                           opt subtitle "HI-TECH Software Omniscient Code Generator (Lite mode) build 49521"
   477  0005                     PORTA equ 05h ;# 
   478                           opt subtitle "HI-TECH Software Omniscient Code Generator (Lite mode) build 49521"
   479  0006                     PORTB equ 06h ;# 
   480                           opt subtitle "HI-TECH Software Omniscient Code Generator (Lite mode) build 49521"
   481  000A                     PCLATH equ 0Ah ;# 
   482                           opt subtitle "HI-TECH Software Omniscient Code Generator (Lite mode) build 49521"
   483  000B                     INTCON equ 0Bh ;# 
   484                           opt subtitle "HI-TECH Software Omniscient Code Generator (Lite mode) build 49521"
   485  000C                     PIR1 equ 0Ch ;# 
   486                           opt subtitle "HI-TECH Software Omniscient Code Generator (Lite mode) build 49521"
   487  000D                     PIR2 equ 0Dh ;# 
   488                           opt subtitle "HI-TECH Software Omniscient Code Generator (Lite mode) build 49521"
   489  000E                     TMR1 equ 0Eh ;# 
   490                           opt subtitle "HI-TECH Software Omniscient Code Generator (Lite mode) build 49521"
   491  000E                     TMR1L equ 0Eh ;# 
   492                           opt subtitle "HI-TECH Software Omniscient Code Generator (Lite mode) build 49521"
   493  000F                     TMR1H equ 0Fh ;# 
   494                           opt subtitle "HI-TECH Software Omniscient Code Generator (Lite mode) build 49521"
   495  0010                     T1CON equ 010h ;# 
   496                           opt subtitle "HI-TECH Software Omniscient Code Generator (Lite mode) build 49521"
   497  0011                     TMR2 equ 011h ;# 
   498                           opt subtitle "HI-TECH Software Omniscient Code Generator (Lite mode) build 49521"
   499  0012                     T2CON equ 012h ;# 
   500                           opt subtitle "HI-TECH Software Omniscient Code Generator (Lite mode) build 49521"
   501  0013                     SSPBUF equ 013h ;# 
   502                           opt subtitle "HI-TECH Software Omniscient Code Generator (Lite mode) build 49521"
   503  0014                     SSPCON equ 014h ;# 
   504                           opt subtitle "HI-TECH Software Omniscient Code Generator (Lite mode) build 49521"
   505  0015                     CCPR1 equ 015h ;# 
   506                           opt subtitle "HI-TECH Software Omniscient Code Generator (Lite mode) build 49521"
   507  0015                     CCPR1L equ 015h ;# 
   508                           opt subtitle "HI-TECH Software Omniscient Code Generator (Lite mode) build 49521"
   509  0016                     CCPR1H equ 016h ;# 
   510                           opt subtitle "HI-TECH Software Omniscient Code Generator (Lite mode) build 49521"
   511  0017                     CCP1CON equ 017h ;# 
   512                           opt subtitle "HI-TECH Software Omniscient Code Generator (Lite mode) build 49521"
   513  0018                     RCSTA equ 018h ;# 
   514                           opt subtitle "HI-TECH Software Omniscient Code Generator (Lite mode) build 49521"
   515  0019                     TXREG equ 019h ;# 
   516                           opt subtitle "HI-TECH Software Omniscient Code Generator (Lite mode) build 49521"
   517  001A                     RCREG equ 01Ah ;# 
   518                           opt subtitle "HI-TECH Software Omniscient Code Generator (Lite mode) build 49521"
   519  001E                     ADRESH equ 01Eh ;# 
   520                           opt subtitle "HI-TECH Software Omniscient Code Generator (Lite mode) build 49521"
   521  001F                     ADCON0 equ 01Fh ;# 
   522                           opt subtitle "HI-TECH Software Omniscient Code Generator (Lite mode) build 49521"
   523  0081                     OPTION_REG equ 081h ;# 
   524                           opt subtitle "HI-TECH Software Omniscient Code Generator (Lite mode) build 49521"
   525  0085                     TRISA equ 085h ;# 
   526                           opt subtitle "HI-TECH Software Omniscient Code Generator (Lite mode) build 49521"
   527  0086                     TRISB equ 086h ;# 
   528                           opt subtitle "HI-TECH Software Omniscient Code Generator (Lite mode) build 49521"
   529  008C                     PIE1 equ 08Ch ;# 
   530                           opt subtitle "HI-TECH Software Omniscient Code Generator (Lite mode) build 49521"
   531  008D                     PIE2 equ 08Dh ;# 
   532                           opt subtitle "HI-TECH Software Omniscient Code Generator (Lite mode) build 49521"
   533  008E                     PCON equ 08Eh ;# 
   534                           opt subtitle "HI-TECH Software Omniscient Code Generator (Lite mode) build 49521"
   535  008F                     OSCCON equ 08Fh ;# 
   536                           opt subtitle "HI-TECH Software Omniscient Code Generator (Lite mode) build 49521"
   537  0090                     OSCTUNE equ 090h ;# 
   538                           opt subtitle "HI-TECH Software Omniscient Code Generator (Lite mode) build 49521"
   539  0092                     PR2 equ 092h ;# 
   540                           opt subtitle "HI-TECH Software Omniscient Code Generator (Lite mode) build 49521"
   541  0093                     SSPADD equ 093h ;# 
   542                           opt subtitle "HI-TECH Software Omniscient Code Generator (Lite mode) build 49521"
   543  0094                     SSPSTAT equ 094h ;# 
   544                           opt subtitle "HI-TECH Software Omniscient Code Generator (Lite mode) build 49521"
   545  0098                     TXSTA equ 098h ;# 
   546                           opt subtitle "HI-TECH Software Omniscient Code Generator (Lite mode) build 49521"
   547  0099                     SPBRG equ 099h ;# 
   548                           opt subtitle "HI-TECH Software Omniscient Code Generator (Lite mode) build 49521"
   549  009B                     ANSEL equ 09Bh ;# 
   550                           opt subtitle "HI-TECH Software Omniscient Code Generator (Lite mode) build 49521"
   551  009C                     CMCON equ 09Ch ;# 
   552                           opt subtitle "HI-TECH Software Omniscient Code Generator (Lite mode) build 49521"
   553  009D                     CVRCON equ 09Dh ;# 
   554                           opt subtitle "HI-TECH Software Omniscient Code Generator (Lite mode) build 49521"
   555  009E                     ADRESL equ 09Eh ;# 
   556                           opt subtitle "HI-TECH Software Omniscient Code Generator (Lite mode) build 49521"
   557  009F                     ADCON1 equ 09Fh ;# 
   558                           opt subtitle "HI-TECH Software Omniscient Code Generator (Lite mode) build 49521"
   559  0105                     WDTCON equ 0105h ;# 
   560                           opt subtitle "HI-TECH Software Omniscient Code Generator (Lite mode) build 49521"
   561  010C                     EEDATA equ 010Ch ;# 
   562                           opt subtitle "HI-TECH Software Omniscient Code Generator (Lite mode) build 49521"
   563  010D                     EEADR equ 010Dh ;# 
   564                           opt subtitle "HI-TECH Software Omniscient Code Generator (Lite mode) build 49521"
   565  010E                     EEDATH equ 010Eh ;# 
   566                           opt subtitle "HI-TECH Software Omniscient Code Generator (Lite mode) build 49521"
   567  010F                     EEADRH equ 010Fh ;# 
   568                           opt subtitle "HI-TECH Software Omniscient Code Generator (Lite mode) build 49521"
   569  018C                     EECON1 equ 018Ch ;# 
   570                           opt subtitle "HI-TECH Software Omniscient Code Generator (Lite mode) build 49521"
   571  018D                     EECON2 equ 018Dh ;# 
   572                           opt subtitle "HI-TECH Software Omniscient Code Generator (Lite mode) build 49521"
   573                           
   574                           opt pagewidth 120
   575                           
   576                           	opt lm
   577                           
   578                           	processor	16F88
   579                           clrc	macro
   580                           	bcf	3,0
   581                           	endm
   582                           clrz	macro
   583                           	bcf	3,2
   584                           	endm
   585                           setc	macro
   586                           	bsf	3,0
   587                           	endm
   588                           setz	macro
   589                           	bsf	3,2
   590                           	endm
   591                           skipc	macro
   592                           	btfss	3,0
   593                           	endm
   594                           skipz	macro
   595                           	btfss	3,2
   596                           	endm
   597                           skipnc	macro
   598                           	btfsc	3,0
   599                           	endm
   600                           skipnz	macro
   601                           	btfsc	3,2
   602                           	endm
   603                           indf	equ	0
   604                           indf0	equ	0
   605                           pc	equ	2
   606                           pcl	equ	2
   607                           status	equ	3
   608                           fsr	equ	4
   609                           fsr0	equ	4
   610                           c	equ	1
   611                           z	equ	0
   612  07FE                     __pidataBANK0:
   613                           opt subtitle "HI-TECH Software Omniscient Code Generator (Lite mode) build 49521"
   614                           
   615                           opt pagewidth 120
   616                           
   617  07FE  3410               	retlw	010h
   618                           opt subtitle "HI-TECH Software Omniscient Code Generator (Lite mode) build 49521"
   619                           
   620                           opt pagewidth 120
   621  07FF  3402               	retlw	02h
   622                           opt subtitle "HI-TECH Software Omniscient Code Generator (Lite mode) build 49521"
   623                           
   624                           opt pagewidth 120
   625  0500                     __pstrings:
   626                           opt subtitle "HI-TECH Software Omniscient Code Generator (Lite mode) build 49521"
   627  0500                     stringtab:
   628                           opt subtitle "HI-TECH Software Omniscient Code Generator (Lite mode) build 49521"
   629  0500                     __stringtab:
   630                           opt subtitle "HI-TECH Software Omniscient Code Generator (Lite mode) build 49521"
   631  0500  1BFF               	btfsc	(btemp+1),7
   632  0501  2D0A               	ljmp	stringcode
   633  0502  1383               	bcf	status,7
   634  0503  187F               	btfsc	(btemp+1),0
   635  0504  1783               	bsf	status,7
   636  0505  0800               	movf	indf,w
   637  0506  0A84               	incf fsr
   638  0507  1903               skipnz
   639  0508  0AFF               incf btemp+1
   640  0509  0008               	return
   641  050A                     stringcode:stringdir:
      + 050A                     stringdir:	
   642  050A  3005               movlw high(stringdir)
   643  050B  008A               movwf pclath
   644  050C  0804               movf fsr,w
   645  050D  0A84               incf fsr
   646  050E  0782               	addwf pc
   647  050F                     __stringbase:
   648  050F  3400               	retlw	0
   649                           opt subtitle "HI-TECH Software Omniscient Code Generator (Lite mode) build 49521"
   650                           
   651  0510                     __end_of__stringtab:
   652                           opt subtitle "HI-TECH Software Omniscient Code Generator (Lite mode) build 49521"
   653                           
   654  0510                     _dpowers:
   655  0510  3401               	retlw	01h
   656  0511  3400               	retlw	0
   657                           opt subtitle "HI-TECH Software Omniscient Code Generator (Lite mode) build 49521"
   658  0512  340A               	retlw	0Ah
   659  0513  3400               	retlw	0
   660                           opt subtitle "HI-TECH Software Omniscient Code Generator (Lite mode) build 49521"
   661  0514  3464               	retlw	064h
   662  0515  3400               	retlw	0
   663                           opt subtitle "HI-TECH Software Omniscient Code Generator (Lite mode) build 49521"
   664  0516  34E8               	retlw	0E8h
   665  0517  3403               	retlw	03h
   666                           opt subtitle "HI-TECH Software Omniscient Code Generator (Lite mode) build 49521"
   667  0518  3410               	retlw	010h
   668  0519  3427               	retlw	027h
   669                           opt subtitle "HI-TECH Software Omniscient Code Generator (Lite mode) build 49521"
   670                           
   671  051A                     __end_of_dpowers:
   672                           opt subtitle "HI-TECH Software Omniscient Code Generator (Lite mode) build 49521"
   673                           
   674                           opt pagewidth 120
   675                           
   676  051A                     _rowaddr:
   677  051A  3400               	retlw	0
   678  051B  3440               	retlw	040h
   679  051C  3414               	retlw	014h
   680  051D  3454               	retlw	054h
   681                           opt subtitle "HI-TECH Software Omniscient Code Generator (Lite mode) build 49521"
   682  051E                     __end_of_rowaddr:
   683                           opt subtitle "HI-TECH Software Omniscient Code Generator (Lite mode) build 49521"
   684                           
   685                           opt pagewidth 120
   686                           
   687                           	opt lm
   688                           
   689                           	processor	16F88
   690                           clrc	macro
   691                           	bcf	3,0
   692                           	endm
   693                           clrz	macro
   694                           	bcf	3,2
   695  006F                     __pnvBANK0:
   696  006F                     _iomode:
   697  006F                            ds      1
   698                           opt subtitle "HI-TECH Software Omniscient Code Generator (Lite mode) build 49521"
   699                           
   700  000B                     _INTCONbits	set	0xB
   701                           opt subtitle "HI-TECH Software Omniscient Code Generator (Lite mode) build 49521"
   702  000C                     _PIR1bits	set	0xC
   703                           opt subtitle "HI-TECH Software Omniscient Code Generator (Lite mode) build 49521"
   704  0005                     _PORTA	set	0x5
   705                           opt subtitle "HI-TECH Software Omniscient Code Generator (Lite mode) build 49521"
   706  0005                     _PORTAbits	set	0x5
   707                           opt subtitle "HI-TECH Software Omniscient Code Generator (Lite mode) build 49521"
   708  0006                     _PORTBbits	set	0x6
   709                           opt subtitle "HI-TECH Software Omniscient Code Generator (Lite mode) build 49521"
   710  0010                     _T1CON	set	0x10
   711                           opt subtitle "HI-TECH Software Omniscient Code Generator (Lite mode) build 49521"
   712  000F                     _TMR1H	set	0xF
   713                           opt subtitle "HI-TECH Software Omniscient Code Generator (Lite mode) build 49521"
   714  000E                     _TMR1L	set	0xE
   715                           opt subtitle "HI-TECH Software Omniscient Code Generator (Lite mode) build 49521"
   716  005F                     _GIE	set	0x5F
   717                           opt subtitle "HI-TECH Software Omniscient Code Generator (Lite mode) build 49521"
   718  009B                     _ANSEL	set	0x9B
   719                           opt subtitle "HI-TECH Software Omniscient Code Generator (Lite mode) build 49521"
   720  008F                     _OSCCON	set	0x8F
   721                           opt subtitle "HI-TECH Software Omniscient Code Generator (Lite mode) build 49521"
   722  008C                     _PIE1bits	set	0x8C
   723                           opt subtitle "HI-TECH Software Omniscient Code Generator (Lite mode) build 49521"
   724  0085                     _TRISA	set	0x85
   725                           opt subtitle "HI-TECH Software Omniscient Code Generator (Lite mode) build 49521"
   726  0085                     _TRISAbits	set	0x85
   727                           opt subtitle "HI-TECH Software Omniscient Code Generator (Lite mode) build 49521"
   728  0086                     _TRISB	set	0x86
   729                           opt subtitle "HI-TECH Software Omniscient Code Generator (Lite mode) build 49521"
   730  0086                     _TRISBbits	set	0x86
   731                           opt subtitle "HI-TECH Software Omniscient Code Generator (Lite mode) build 49521"
   732                           
   733  051E                     __stringdata:
   734                           opt subtitle "HI-TECH Software Omniscient Code Generator (Lite mode) build 49521"
   735  051E                     STR_3:	
   736  051E  3453               	retlw	83	;'S'
   737  051F  3465               	retlw	101	;'e'
   738  0520  346E               	retlw	110	;'n'
   739  0521  3473               	retlw	115	;'s'
   740  0522  346F               	retlw	111	;'o'
   741  0523  3472               	retlw	114	;'r'
   742  0524  3420               	retlw	32	;' '
   743  0525  3465               	retlw	101	;'e'
   744  0526  3472               	retlw	114	;'r'
   745  0527  3472               	retlw	114	;'r'
   746  0528  346F               	retlw	111	;'o'
   747  0529  3472               	retlw	114	;'r'
   748  052A  343A               	retlw	58	;':'
   749  052B  3420               	retlw	32	;' '
   750  052C  3425               	retlw	37	;'%'
   751  052D  3430               	retlw	48	;'0'
   752  052E  3432               	retlw	50	;'2'
   753  052F  3464               	retlw	100	;'d'
   754  0530  3420               	retlw	32	;' '
   755  0531  3420               	retlw	32	;' '
   756  0532  3420               	retlw	32	;' '
   757  0533  3420               	retlw	32	;' '
   758  0534  3400               	retlw	0
   759                           opt subtitle "HI-TECH Software Omniscient Code Generator (Lite mode) build 49521"
   760                           
   761  0535                     STR_2:	
   762  0535  3454               	retlw	84	;'T'
   763  0536  343A               	retlw	58	;':'
   764  0537  3420               	retlw	32	;' '
   765  0538  3425               	retlw	37	;'%'
   766  0539  3430               	retlw	48	;'0'
   767  053A  3432               	retlw	50	;'2'
   768  053B  3464               	retlw	100	;'d'
   769  053C  3420               	retlw	32	;' '
   770  053D  3443               	retlw	67	;'C'
   771  053E  3420               	retlw	32	;' '
   772  053F  3448               	retlw	72	;'H'
   773  0540  343A               	retlw	58	;':'
   774  0541  3420               	retlw	32	;' '
   775  0542  3425               	retlw	37	;'%'
   776  0543  3430               	retlw	48	;'0'
   777  0544  3432               	retlw	50	;'2'
   778  0545  3464               	retlw	100	;'d'
   779  0546  3425               	retlw	37	;'%'
   780  0547  3425               	retlw	37	;'%'
   781  0548  3420               	retlw	32	;' '
   782  0549  3420               	retlw	32	;' '
   783  054A  3400               	retlw	0
   784                           opt subtitle "HI-TECH Software Omniscient Code Generator (Lite mode) build 49521"
   785                           
   786  054B                     STR_1:	
   787  054B  3420               	retlw	32	;' '
   788  054C  3420               	retlw	32	;' '
   789  054D  3450               	retlw	80	;'P'
   790  054E  3452               	retlw	82	;'R'
   791  054F  3455               	retlw	85	;'U'
   792  0550  3445               	retlw	69	;'E'
   793  0551  3442               	retlw	66	;'B'
   794  0552  3441               	retlw	65	;'A'
   795  0553  3420               	retlw	32	;' '
   796  0554  3444               	retlw	68	;'D'
   797  0555  3448               	retlw	72	;'H'
   798  0556  3454               	retlw	84	;'T'
   799  0557  3431               	retlw	49	;'1'
   800  0558  3431               	retlw	49	;'1'
   801  0559  3420               	retlw	32	;' '
   802  055A  3420               	retlw	32	;' '
   803  055B  3400               	retlw	0
   804                           opt subtitle "HI-TECH Software Omniscient Code Generator (Lite mode) build 49521"
   805                           
   806  055C                     __end_of__stringdata:
   807                           opt subtitle "HI-TECH Software Omniscient Code Generator (Lite mode) build 49521"
   808                           
   809  0000                     __CFG_BOREN$OFF equ 0x0
   810                           opt subtitle "HI-TECH Software Omniscient Code Generator (Lite mode) build 49521"
   811  0000                     __CFG_CPD$OFF equ 0x0
   812                           opt subtitle "HI-TECH Software Omniscient Code Generator (Lite mode) build 49521"
   813  0000                     __CFG_CCPMX$RB0 equ 0x0
   814                           opt subtitle "HI-TECH Software Omniscient Code Generator (Lite mode) build 49521"
   815  0000                     __CFG_WRT$OFF equ 0x0
   816                           opt subtitle "HI-TECH Software Omniscient Code Generator (Lite mode) build 49521"
   817  0000                     __CFG_FOSC$INTOSCIO equ 0x0
   818                           opt subtitle "HI-TECH Software Omniscient Code Generator (Lite mode) build 49521"
   819  0000                     __CFG_MCLRE$ON equ 0x0
   820                           opt subtitle "HI-TECH Software Omniscient Code Generator (Lite mode) build 49521"
   821  0000                     __CFG_WDTE$OFF equ 0x0
   822                           opt subtitle "HI-TECH Software Omniscient Code Generator (Lite mode) build 49521"
   823  0000                     __CFG_CP$OFF equ 0x0
   824                           opt subtitle "HI-TECH Software Omniscient Code Generator (Lite mode) build 49521"
   825  0000                     __CFG_LVP$OFF equ 0x0
   826                           opt subtitle "HI-TECH Software Omniscient Code Generator (Lite mode) build 49521"
   827  0000                     __CFG_PWRTE$OFF equ 0x0
   828                           opt subtitle "HI-TECH Software Omniscient Code Generator (Lite mode) build 49521"
   829  0000                     __CFG_IESO$OFF equ 0x0
   830                           opt subtitle "HI-TECH Software Omniscient Code Generator (Lite mode) build 49521"
   831  0000                     __CFG_FCMEN$OFF equ 0x0
   832                           opt subtitle "HI-TECH Software Omniscient Code Generator (Lite mode) build 49521"
   833                           
   834                           opt pagewidth 120
   835                           
   836  0FB6                     start_initialization:
   837                           opt subtitle "HI-TECH Software Omniscient Code Generator (Lite mode) build 49521"
   838                           
   839  0FB6                     __initialization:
   840                           opt subtitle "HI-TECH Software Omniscient Code Generator (Lite mode) build 49521"
   841                           
   842  0076                     __pbssCOMMON:
   843  0076                     _tickcnt:
   844  0076                            ds      4
   845                           opt subtitle "HI-TECH Software Omniscient Code Generator (Lite mode) build 49521"
   846                           
   847                           opt pagewidth 120
   848  0020                     __pbssBANK0:
   849  0020                     _tickbuffer:
   850  0020                            ds      6
   851                           opt subtitle "HI-TECH Software Omniscient Code Generator (Lite mode) build 49521"
   852  0026                     _bits:
   853  0026                            ds      5
   854                           opt subtitle "HI-TECH Software Omniscient Code Generator (Lite mode) build 49521"
   855  002B                     dht11_task@ltick:
   856  002B                            ds      4
   857                           opt subtitle "HI-TECH Software Omniscient Code Generator (Lite mode) build 49521"
   858  002F                     led_task@ltime:
   859  002F                            ds      4
   860                           opt subtitle "HI-TECH Software Omniscient Code Generator (Lite mode) build 49521"
   861  0033                     _dispctrl:
   862  0033                            ds      1
   863                           opt subtitle "HI-TECH Software Omniscient Code Generator (Lite mode) build 49521"
   864  0034                     _buf:
   865  0034                            ds      20
   866                           opt subtitle "HI-TECH Software Omniscient Code Generator (Lite mode) build 49521"
   867                           
   868                           opt pagewidth 120
   869  006D                     __pdataBANK0:
   870                           opt subtitle "HI-TECH Software Omniscient Code Generator (Lite mode) build 49521"
   871                           
   872  006D                     _lcdcolumns:
   873  006D                            ds      1
   874                           opt subtitle "HI-TECH Software Omniscient Code Generator (Lite mode) build 49521"
   875                           
   876                           opt pagewidth 120
   877                           
   878  006E                     _lcdrows:
   879  006E                            ds      1
   880                           opt subtitle "HI-TECH Software Omniscient Code Generator (Lite mode) build 49521"
   881                           
   882                           opt pagewidth 120
   883                           
   884                           	opt lm
   885  07F2                     clear_ram:
   886  07F2  0064               	clrwdt			;clear the watchdog before getting into this loop
   887  07F3                     clrloop:
   888  07F3  0180               	clrf	indf		;clear RAM location pointed to by FSR
   889  07F4  0A84               	incf	fsr,f		;increment pointer
   890  07F5  0604               	xorwf	fsr,w		;XOR with final address
   891  07F6  1903               	btfsc	status,2	;have we reached the end yet?
   892  07F7  3400               	retlw	0		;all done for this memory range, return
   893  07F8  0604               	xorwf	fsr,w		;XOR again to restore value
   894  07F9  2FF3               	goto	clrloop		;do the next byte
   895                           opt subtitle "HI-TECH Software Omniscient Code Generator (Lite mode) build 49521"
   896                           
   897                           opt pagewidth 120
   898  0FB6  01F6               	clrf	((__pbssCOMMON)+0)&07Fh
   899  0FB7  01F7               	clrf	((__pbssCOMMON)+1)&07Fh
   900  0FB8  01F8               	clrf	((__pbssCOMMON)+2)&07Fh
   901  0FB9  01F9               	clrf	((__pbssCOMMON)+3)&07Fh
   902                           opt subtitle "HI-TECH Software Omniscient Code Generator (Lite mode) build 49521"
   903                           
   904  0FBA  1383               	bcf	status, 7	;select IRP bank0
   905  0FBB  3020               	movlw	low(__pbssBANK0)
   906  0FBC  0084               	movwf	fsr
   907  0FBD  3048               	movlw	low((__pbssBANK0)+028h)
   908  0FBE  118A  27F2  158A   	fcall	clear_ram
   909                           opt subtitle "HI-TECH Software Omniscient Code Generator (Lite mode) build 49521"
   910                           
   911                           opt pagewidth 120
   912  0FC1  118A  27FE  158A   	fcall	__pidataBANK0+0		;fetch initializer
   913  0FC4  00ED               	movwf	__pdataBANK0+0&07fh		
   914  0FC5  118A  27FF  158A   	fcall	__pidataBANK0+1		;fetch initializer
   915  0FC8  00EE               	movwf	__pdataBANK0+1&07fh		
   916                           opt subtitle "HI-TECH Software Omniscient Code Generator (Lite mode) build 49521"
   917                           
   918                           opt pagewidth 120
   919                           
   920                           	opt lm
   921  0FC9                     end_of_initialization:
   922  0FC9                     __end_of__initialization:clrf status
      + 0FC9  0183               	clrf	3
   923  0FCA  118A  2F40         ljmp _main	;jump to C main() function
   924                           opt subtitle "HI-TECH Software Omniscient Code Generator (Lite mode) build 49521"
   925                           
   926  00A0                     __pcstackBANK1:
   927                           opt subtitle "HI-TECH Software Omniscient Code Generator (Lite mode) build 49521"
   928  00A0                     dht11_task@eResult:	; 1 bytes @ 0x0
   929  00A0                     	ds	1
   930                           opt subtitle "HI-TECH Software Omniscient Code Generator (Lite mode) build 49521"
   931  00A1                     dht11_task@tb:	; 1 bytes @ 0x1
   932  00A1                     	ds	1
   933                           opt subtitle "HI-TECH Software Omniscient Code Generator (Lite mode) build 49521"
   934  00A2                     dht11_task@hb:	; 1 bytes @ 0x2
   935  00A2                     	ds	1
   936                           opt subtitle "HI-TECH Software Omniscient Code Generator (Lite mode) build 49521"
   937                           
   938  0070                     __pcstackCOMMON:
   939  0070                     ?_tick_init:	; 0 bytes @ 0x0
   940  0070                     ?_dhtlib_init:	; 0 bytes @ 0x0
   941  0070                     ?_lcd_on:	; 0 bytes @ 0x0
   942  0070                     ?_led_task:	; 0 bytes @ 0x0
   943  0070                     ?_dht11_task:	; 0 bytes @ 0x0
   944  0070                     ?_tick_update:	; 0 bytes @ 0x0
   945  0070                     ??_tick_update:	; 0 bytes @ 0x0
   946  0070                     ?_dhtlib_start:	; 0 bytes @ 0x0
   947  0070                     ?_tick_read_internal:	; 0 bytes @ 0x0
   948  0070                     ?_lcd_iowrite4:	; 0 bytes @ 0x0
   949  0070                     ?_lcd_iowrite8:	; 0 bytes @ 0x0
   950  0070                     ?_isdigit:	; 1 bit 
   951  0070                     ?_main:	; 0 bytes @ 0x0
   952  0070                     ?_isr:	; 0 bytes @ 0x0
   953  0070                     ??_isr:	; 0 bytes @ 0x0
   954  0070                     ?_lcd_ioinit:	; 1 bytes @ 0x0
   955  0070                     ?_dhtlib_read:	; 1 bytes @ 0x0
   956  0070                     lcd_ioinit@iodata:	; 1 bytes @ 0x0
   957  0070                     lcd_iowrite8@data:	; 1 bytes @ 0x0
   958  0070                     	ds	4
   959  0074                     ??_tick_init:	; 0 bytes @ 0x4
   960  0074                     ??_dhtlib_init:	; 0 bytes @ 0x4
   961  0074                     ??_dhtlib_start:	; 0 bytes @ 0x4
   962  0074                     ??_tick_read_internal:	; 0 bytes @ 0x4
   963                           opt subtitle "HI-TECH Software Omniscient Code Generator (Lite mode) build 49521"
   964  0074                     ?_lcd_ioset:	; 0 bytes @ 0x4
   965  0074                     ??_lcd_iowrite8:	; 0 bytes @ 0x4
   966  0074                     ??_isdigit:	; 0 bytes @ 0x4
   967  0074                     ??___wmul:	; 0 bytes @ 0x4
   968  0074                     ??___lwdiv:	; 0 bytes @ 0x4
   969                           opt subtitle "HI-TECH Software Omniscient Code Generator (Lite mode) build 49521"
   970  0074                     lcd_ioset@out:	; 1 bytes @ 0x4
   971                           opt subtitle "HI-TECH Software Omniscient Code Generator (Lite mode) build 49521"
   972  0074                     _isdigit$587:	; 1 bytes @ 0x4
   973                           opt subtitle "HI-TECH Software Omniscient Code Generator (Lite mode) build 49521"
   974  0074                     ___wmul@product:	; 2 bytes @ 0x4
   975  0074                     	ds	1
   976  0075                     ??_tick_get:	; 0 bytes @ 0x5
   977  0075                     ??_lcd_ioset:	; 0 bytes @ 0x5
   978  0075                     ??___lwmod:	; 0 bytes @ 0x5
   979                           opt subtitle "HI-TECH Software Omniscient Code Generator (Lite mode) build 49521"
   980  0075                     lcd_ioset@pin:	; 1 bytes @ 0x5
   981                           opt subtitle "HI-TECH Software Omniscient Code Generator (Lite mode) build 49521"
   982  0075                     isdigit@c:	; 1 bytes @ 0x5
   983  0075                     	ds	1
   984  0076                     ??_lcd_puts:	; 0 bytes @ 0x6
   985                           opt subtitle "HI-TECH Software Omniscient Code Generator (Lite mode) build 49521"
   986                           
   987  0048                     __pcstackBANK0:
   988  0048                     ??_lcd_ioinit:	; 0 bytes @ 0x0
   989  0048                     ??_lcd_iowrite4:	; 0 bytes @ 0x0
   990  0048                     ??_dhtlib_read:	; 0 bytes @ 0x0
   991                           opt subtitle "HI-TECH Software Omniscient Code Generator (Lite mode) build 49521"
   992  0048                     ?___wmul:	; 2 bytes @ 0x0
   993                           opt subtitle "HI-TECH Software Omniscient Code Generator (Lite mode) build 49521"
   994  0048                     ?___lwdiv:	; 2 bytes @ 0x0
   995                           opt subtitle "HI-TECH Software Omniscient Code Generator (Lite mode) build 49521"
   996  0048                     ?_tick_get:	; 4 bytes @ 0x0
   997                           opt subtitle "HI-TECH Software Omniscient Code Generator (Lite mode) build 49521"
   998  0048                     ___wmul@multiplier:	; 2 bytes @ 0x0
   999                           opt subtitle "HI-TECH Software Omniscient Code Generator (Lite mode) build 49521"
  1000  0048                     ___lwdiv@divisor:	; 2 bytes @ 0x0
  1001  0048                     	ds	1
  1002                           opt subtitle "HI-TECH Software Omniscient Code Generator (Lite mode) build 49521"
  1003  0049                     lcd_ioinit@i:	; 1 bytes @ 0x1
  1004  0049                     	ds	1
  1005                           opt subtitle "HI-TECH Software Omniscient Code Generator (Lite mode) build 49521"
  1006  004A                     dhtlib_read@aindex:	; 1 bytes @ 0x2
  1007                           opt subtitle "HI-TECH Software Omniscient Code Generator (Lite mode) build 49521"
  1008  004A                     lcd_iowrite4@data:	; 1 bytes @ 0x2
  1009                           opt subtitle "HI-TECH Software Omniscient Code Generator (Lite mode) build 49521"
  1010  004A                     ___wmul@multiplicand:	; 2 bytes @ 0x2
  1011                           opt subtitle "HI-TECH Software Omniscient Code Generator (Lite mode) build 49521"
  1012  004A                     ___lwdiv@dividend:	; 2 bytes @ 0x2
  1013  004A                     	ds	1
  1014                           opt subtitle "HI-TECH Software Omniscient Code Generator (Lite mode) build 49521"
  1015  004B                     dhtlib_read@bcount:	; 1 bytes @ 0x3
  1016                           opt subtitle "HI-TECH Software Omniscient Code Generator (Lite mode) build 49521"
  1017  004B                     lcd_iowrite4@i:	; 1 bytes @ 0x3
  1018  004B                     	ds	1
  1019  004C                     ??_led_task:	; 0 bytes @ 0x4
  1020                           opt subtitle "HI-TECH Software Omniscient Code Generator (Lite mode) build 49521"
  1021  004C                     ?_lcd_send:	; 0 bytes @ 0x4
  1022                           opt subtitle "HI-TECH Software Omniscient Code Generator (Lite mode) build 49521"
  1023  004C                     dhtlib_read@tocounter:	; 1 bytes @ 0x4
  1024                           opt subtitle "HI-TECH Software Omniscient Code Generator (Lite mode) build 49521"
  1025  004C                     lcd_send@rs:	; 1 bytes @ 0x4
  1026                           opt subtitle "HI-TECH Software Omniscient Code Generator (Lite mode) build 49521"
  1027  004C                     ___lwdiv@counter:	; 1 bytes @ 0x4
  1028  004C                     	ds	1
  1029  004D                     ??_lcd_send:	; 0 bytes @ 0x5
  1030                           opt subtitle "HI-TECH Software Omniscient Code Generator (Lite mode) build 49521"
  1031  004D                     dhtlib_read@i:	; 1 bytes @ 0x5
  1032                           opt subtitle "HI-TECH Software Omniscient Code Generator (Lite mode) build 49521"
  1033  004D                     ___lwdiv@quotient:	; 2 bytes @ 0x5
  1034  004D                     	ds	1
  1035                           opt subtitle "HI-TECH Software Omniscient Code Generator (Lite mode) build 49521"
  1036  004E                     ?_dhtlib_read11:	; 1 bytes @ 0x6
  1037                           opt subtitle "HI-TECH Software Omniscient Code Generator (Lite mode) build 49521"
  1038  004E                     dhtlib_read11@hum:	; 1 bytes @ 0x6
  1039                           opt subtitle "HI-TECH Software Omniscient Code Generator (Lite mode) build 49521"
  1040  004E                     lcd_send@data:	; 1 bytes @ 0x6
  1041  004E                     	ds	1
  1042  004F                     ??_lcd_on:	; 0 bytes @ 0x7
  1043                           opt subtitle "HI-TECH Software Omniscient Code Generator (Lite mode) build 49521"
  1044  004F                     ?_lcd_puts:	; 0 bytes @ 0x7
  1045                           opt subtitle "HI-TECH Software Omniscient Code Generator (Lite mode) build 49521"
  1046  004F                     ?_lcd_goto:	; 0 bytes @ 0x7
  1047  004F                     ??_dhtlib_read11:	; 0 bytes @ 0x7
  1048                           opt subtitle "HI-TECH Software Omniscient Code Generator (Lite mode) build 49521"
  1049  004F                     ?_lcd_init:	; 1 bytes @ 0x7
  1050                           opt subtitle "HI-TECH Software Omniscient Code Generator (Lite mode) build 49521"
  1051  004F                     ?___lwmod:	; 2 bytes @ 0x7
  1052                           opt subtitle "HI-TECH Software Omniscient Code Generator (Lite mode) build 49521"
  1053  004F                     lcd_init@cols:	; 1 bytes @ 0x7
  1054                           opt subtitle "HI-TECH Software Omniscient Code Generator (Lite mode) build 49521"
  1055  004F                     lcd_goto@row:	; 1 bytes @ 0x7
  1056                           opt subtitle "HI-TECH Software Omniscient Code Generator (Lite mode) build 49521"
  1057  004F                     lcd_puts@string:	; 2 bytes @ 0x7
  1058                           opt subtitle "HI-TECH Software Omniscient Code Generator (Lite mode) build 49521"
  1059  004F                     ___lwmod@divisor:	; 2 bytes @ 0x7
  1060  004F                     	ds	1
  1061  0050                     ??_lcd_goto:	; 0 bytes @ 0x8
  1062                           opt subtitle "HI-TECH Software Omniscient Code Generator (Lite mode) build 49521"
  1063  0050                     lcd_init@rows:	; 1 bytes @ 0x8
  1064  0050                     	ds	1
  1065  0051                     ??_lcd_init:	; 0 bytes @ 0x9
  1066                           opt subtitle "HI-TECH Software Omniscient Code Generator (Lite mode) build 49521"
  1067  0051                     lcd_goto@col:	; 1 bytes @ 0x9
  1068                           opt subtitle "HI-TECH Software Omniscient Code Generator (Lite mode) build 49521"
  1069  0051                     ___lwmod@dividend:	; 2 bytes @ 0x9
  1070  0051                     	ds	1
  1071                           opt subtitle "HI-TECH Software Omniscient Code Generator (Lite mode) build 49521"
  1072  0052                     dhtlib_read11@temp:	; 1 bytes @ 0xA
  1073  0052                     	ds	1
  1074                           opt subtitle "HI-TECH Software Omniscient Code Generator (Lite mode) build 49521"
  1075  0053                     dhtlib_read11@chksum:	; 1 bytes @ 0xB
  1076                           opt subtitle "HI-TECH Software Omniscient Code Generator (Lite mode) build 49521"
  1077  0053                     ___lwmod@counter:	; 1 bytes @ 0xB
  1078  0053                     	ds	1
  1079                           opt subtitle "HI-TECH Software Omniscient Code Generator (Lite mode) build 49521"
  1080  0054                     ?_sprintf:	; 2 bytes @ 0xC
  1081                           opt subtitle "HI-TECH Software Omniscient Code Generator (Lite mode) build 49521"
  1082  0054                     dhtlib_read11@s:	; 1 bytes @ 0xC
  1083                           opt subtitle "HI-TECH Software Omniscient Code Generator (Lite mode) build 49521"
  1084  0054                     lcd_init@iodata:	; 1 bytes @ 0xC
  1085                           opt subtitle "HI-TECH Software Omniscient Code Generator (Lite mode) build 49521"
  1086  0054                     sprintf@f:	; 1 bytes @ 0xC
  1087  0054                     	ds	5
  1088  0059                     ??_sprintf:	; 0 bytes @ 0x11
  1089  0059                     	ds	3
  1090                           opt subtitle "HI-TECH Software Omniscient Code Generator (Lite mode) build 49521"
  1091  005C                     sprintf@ap:	; 1 bytes @ 0x14
  1092  005C                     	ds	1
  1093                           opt subtitle "HI-TECH Software Omniscient Code Generator (Lite mode) build 49521"
  1094  005D                     sprintf@prec:	; 1 bytes @ 0x15
  1095  005D                     	ds	1
  1096                           opt subtitle "HI-TECH Software Omniscient Code Generator (Lite mode) build 49521"
  1097  005E                     sprintf@flag:	; 1 bytes @ 0x16
  1098  005E                     	ds	1
  1099                           opt subtitle "HI-TECH Software Omniscient Code Generator (Lite mode) build 49521"
  1100  005F                     sprintf@sp:	; 1 bytes @ 0x17
  1101  005F                     	ds	1
  1102                           opt subtitle "HI-TECH Software Omniscient Code Generator (Lite mode) build 49521"
  1103  0060                     sprintf@width:	; 2 bytes @ 0x18
  1104  0060                     	ds	2
  1105                           opt subtitle "HI-TECH Software Omniscient Code Generator (Lite mode) build 49521"
  1106  0062                     sprintf@_val:	; 3 bytes @ 0x1A
  1107  0062                     	ds	3
  1108                           opt subtitle "HI-TECH Software Omniscient Code Generator (Lite mode) build 49521"
  1109  0065                     sprintf@c:	; 1 bytes @ 0x1D
  1110  0065                     	ds	1
  1111  0066                     ??_dht11_task:	; 0 bytes @ 0x1E
  1112  0066                     	ds	5
  1113  006B                     ??_main:	; 0 bytes @ 0x23
  1114  006B                     	ds	2
  1115                           opt subtitle "HI-TECH Software Omniscient Code Generator (Lite mode) build 49521"
  1116                           
  1117                           opt pagewidth 120
  1118                           
  1119                           	opt lm
  1120                           
  1121                           	processor	16F88
  1122                           clrc	macro
  1123                           	bcf	3,0
  1124                           	endm
  1125                           clrz	macro
  1126                           	bcf	3,2
  1127                           	endm
  1128                           setc	macro
  1129                           	bsf	3,0
  1130                           	endm
  1131                           setz	macro
  1132                           	bsf	3,2
  1133                           	endm
  1134                           skipc	macro
  1135                           	btfss	3,0
  1136                           	endm
  1137                           skipz	macro
  1138                           	btfss	3,2
  1139                           	endm
  1140                           skipnc	macro
  1141                           	btfsc	3,0
  1142                           	endm
  1143                           skipnz	macro
  1144                           	btfsc	3,2
  1145                           	endm
  1146                           indf	equ	0
  1147                           indf0	equ	0
  1148                           pc	equ	2
  1149                           pcl	equ	2
  1150                           status	equ	3
  1151                           fsr	equ	4
  1152                           fsr0	equ	4
  1153                           c	equ	1
  1154                           z	equ	0
  1155                           pclath	equ	10
  1156                           # 46 "C:\Program Files (x86)\Microchip\xc8\v1.12\include\pic16f88.h"
  1157                           INDF equ 00h ;# 
  1158                           # 52 "C:\Program Files (x86)\Microchip\xc8\v1.12\include\pic16f88.h"
  1159                           TMR0 equ 01h ;# 
  1160                           # 58 "C:\Program Files (x86)\Microchip\xc8\v1.12\include\pic16f88.h"
  1161                           PCL equ 02h ;# 
  1162                           # 64 "C:\Program Files (x86)\Microchip\xc8\v1.12\include\pic16f88.h"
  1163                           STATUS equ 03h ;# 
  1164                           # 151 "C:\Program Files (x86)\Microchip\xc8\v1.12\include\pic16f88.h"
  1165                           FSR equ 04h ;# 
  1166                           # 157 "C:\Program Files (x86)\Microchip\xc8\v1.12\include\pic16f88.h"
  1167                           PORTA equ 05h ;# 
  1168                           # 218 "C:\Program Files (x86)\Microchip\xc8\v1.12\include\pic16f88.h"
  1169                           PORTB equ 06h ;# 
  1170                           # 279 "C:\Program Files (x86)\Microchip\xc8\v1.12\include\pic16f88.h"
  1171                           PCLATH equ 0Ah ;# 
  1172                           # 298 "C:\Program Files (x86)\Microchip\xc8\v1.12\include\pic16f88.h"
  1173                           INTCON equ 0Bh ;# 
  1174                           # 375 "C:\Program Files (x86)\Microchip\xc8\v1.12\include\pic16f88.h"
  1175                           PIR1 equ 0Ch ;# 
  1176                           # 430 "C:\Program Files (x86)\Microchip\xc8\v1.12\include\pic16f88.h"
  1177                           PIR2 equ 0Dh ;# 
  1178                           # 463 "C:\Program Files (x86)\Microchip\xc8\v1.12\include\pic16f88.h"
  1179                           TMR1 equ 0Eh ;# 
  1180                           # 469 "C:\Program Files (x86)\Microchip\xc8\v1.12\include\pic16f88.h"
  1181                           TMR1L equ 0Eh ;# 
  1182                           # 475 "C:\Program Files (x86)\Microchip\xc8\v1.12\include\pic16f88.h"
  1183                           TMR1H equ 0Fh ;# 
  1184                           # 481 "C:\Program Files (x86)\Microchip\xc8\v1.12\include\pic16f88.h"
  1185                           T1CON equ 010h ;# 
  1186                           # 552 "C:\Program Files (x86)\Microchip\xc8\v1.12\include\pic16f88.h"
  1187                           TMR2 equ 011h ;# 
  1188                           # 558 "C:\Program Files (x86)\Microchip\xc8\v1.12\include\pic16f88.h"
  1189                           T2CON equ 012h ;# 
  1190                           # 628 "C:\Program Files (x86)\Microchip\xc8\v1.12\include\pic16f88.h"
  1191                           SSPBUF equ 013h ;# 
  1192                           # 634 "C:\Program Files (x86)\Microchip\xc8\v1.12\include\pic16f88.h"
  1193                           SSPCON equ 014h ;# 
  1194                           # 703 "C:\Program Files (x86)\Microchip\xc8\v1.12\include\pic16f88.h"
  1195                           CCPR1 equ 015h ;# 
  1196                           # 709 "C:\Program Files (x86)\Microchip\xc8\v1.12\include\pic16f88.h"
  1197                           CCPR1L equ 015h ;# 
  1198                           # 715 "C:\Program Files (x86)\Microchip\xc8\v1.12\include\pic16f88.h"
  1199                           CCPR1H equ 016h ;# 
  1200                           # 721 "C:\Program Files (x86)\Microchip\xc8\v1.12\include\pic16f88.h"
  1201                           CCP1CON equ 017h ;# 
  1202                           # 778 "C:\Program Files (x86)\Microchip\xc8\v1.12\include\pic16f88.h"
  1203                           RCSTA equ 018h ;# 
  1204                           # 872 "C:\Program Files (x86)\Microchip\xc8\v1.12\include\pic16f88.h"
  1205                           TXREG equ 019h ;# 
  1206                           # 878 "C:\Program Files (x86)\Microchip\xc8\v1.12\include\pic16f88.h"
  1207                           RCREG equ 01Ah ;# 
  1208                           # 884 "C:\Program Files (x86)\Microchip\xc8\v1.12\include\pic16f88.h"
  1209                           ADRESH equ 01Eh ;# 
  1210                           # 890 "C:\Program Files (x86)\Microchip\xc8\v1.12\include\pic16f88.h"
  1211                           ADCON0 equ 01Fh ;# 
  1212                           # 985 "C:\Program Files (x86)\Microchip\xc8\v1.12\include\pic16f88.h"
  1213                           OPTION_REG equ 081h ;# 
  1214                           # 1054 "C:\Program Files (x86)\Microchip\xc8\v1.12\include\pic16f88.h"
  1215                           TRISA equ 085h ;# 
  1216                           # 1115 "C:\Program Files (x86)\Microchip\xc8\v1.12\include\pic16f88.h"
  1217                           TRISB equ 086h ;# 
  1218                           # 1176 "C:\Program Files (x86)\Microchip\xc8\v1.12\include\pic16f88.h"
  1219                           PIE1 equ 08Ch ;# 
  1220                           # 1231 "C:\Program Files (x86)\Microchip\xc8\v1.12\include\pic16f88.h"
  1221                           PIE2 equ 08Dh ;# 
  1222                           # 1264 "C:\Program Files (x86)\Microchip\xc8\v1.12\include\pic16f88.h"
  1223                           PCON equ 08Eh ;# 
  1224                           # 1297 "C:\Program Files (x86)\Microchip\xc8\v1.12\include\pic16f88.h"
  1225                           OSCCON equ 08Fh ;# 
  1226                           # 1367 "C:\Program Files (x86)\Microchip\xc8\v1.12\include\pic16f88.h"
  1227                           OSCTUNE equ 090h ;# 
  1228                           # 1424 "C:\Program Files (x86)\Microchip\xc8\v1.12\include\pic16f88.h"
  1229                           PR2 equ 092h ;# 
  1230                           # 1430 "C:\Program Files (x86)\Microchip\xc8\v1.12\include\pic16f88.h"
  1231                           SSPADD equ 093h ;# 
  1232                           # 1436 "C:\Program Files (x86)\Microchip\xc8\v1.12\include\pic16f88.h"
  1233                           SSPSTAT equ 094h ;# 
  1234                           # 1604 "C:\Program Files (x86)\Microchip\xc8\v1.12\include\pic16f88.h"
  1235                           TXSTA equ 098h ;# 
  1236                           # 1684 "C:\Program Files (x86)\Microchip\xc8\v1.12\include\pic16f88.h"
  1237                           SPBRG equ 099h ;# 
  1238                           # 1690 "C:\Program Files (x86)\Microchip\xc8\v1.12\include\pic16f88.h"
  1239                           ANSEL equ 09Bh ;# 
  1240                           # 1745 "C:\Program Files (x86)\Microchip\xc8\v1.12\include\pic16f88.h"
  1241                           CMCON equ 09Ch ;# 
  1242                           # 1814 "C:\Program Files (x86)\Microchip\xc8\v1.12\include\pic16f88.h"
  1243                           CVRCON equ 09Dh ;# 
  1244                           # 1878 "C:\Program Files (x86)\Microchip\xc8\v1.12\include\pic16f88.h"
  1245                           ADRESL equ 09Eh ;# 
  1246                           # 1884 "C:\Program Files (x86)\Microchip\xc8\v1.12\include\pic16f88.h"
  1247                           ADCON1 equ 09Fh ;# 
  1248                           # 1931 "C:\Program Files (x86)\Microchip\xc8\v1.12\include\pic16f88.h"
  1249                           WDTCON equ 0105h ;# 
  1250                           # 1988 "C:\Program Files (x86)\Microchip\xc8\v1.12\include\pic16f88.h"
  1251                           EEDATA equ 010Ch ;# 
  1252                           # 1994 "C:\Program Files (x86)\Microchip\xc8\v1.12\include\pic16f88.h"
  1253                           EEADR equ 010Dh ;# 
  1254                           # 2000 "C:\Program Files (x86)\Microchip\xc8\v1.12\include\pic16f88.h"
  1255                           EEDATH equ 010Eh ;# 
  1256                           # 2006 "C:\Program Files (x86)\Microchip\xc8\v1.12\include\pic16f88.h"
  1257                           EEADRH equ 010Fh ;# 
  1258                           # 2012 "C:\Program Files (x86)\Microchip\xc8\v1.12\include\pic16f88.h"
  1259                           EECON1 equ 018Ch ;# 
  1260                           # 2062 "C:\Program Files (x86)\Microchip\xc8\v1.12\include\pic16f88.h"
  1261                           EECON2 equ 018Dh ;# 
  1262                           # 46 "C:\Program Files (x86)\Microchip\xc8\v1.12\include\pic16f88.h"
  1263                           INDF equ 00h ;# 
  1264                           # 52 "C:\Program Files (x86)\Microchip\xc8\v1.12\include\pic16f88.h"
  1265                           TMR0 equ 01h ;# 
  1266                           # 58 "C:\Program Files (x86)\Microchip\xc8\v1.12\include\pic16f88.h"
  1267                           PCL equ 02h ;# 
  1268                           # 64 "C:\Program Files (x86)\Microchip\xc8\v1.12\include\pic16f88.h"
  1269                           STATUS equ 03h ;# 
  1270                           # 151 "C:\Program Files (x86)\Microchip\xc8\v1.12\include\pic16f88.h"
  1271                           FSR equ 04h ;# 
  1272                           # 157 "C:\Program Files (x86)\Microchip\xc8\v1.12\include\pic16f88.h"
  1273                           PORTA equ 05h ;# 
  1274                           # 218 "C:\Program Files (x86)\Microchip\xc8\v1.12\include\pic16f88.h"
  1275                           PORTB equ 06h ;# 
  1276                           # 279 "C:\Program Files (x86)\Microchip\xc8\v1.12\include\pic16f88.h"
  1277                           PCLATH equ 0Ah ;# 
  1278                           # 298 "C:\Program Files (x86)\Microchip\xc8\v1.12\include\pic16f88.h"
  1279                           INTCON equ 0Bh ;# 
  1280                           # 375 "C:\Program Files (x86)\Microchip\xc8\v1.12\include\pic16f88.h"
  1281                           PIR1 equ 0Ch ;# 
  1282                           # 430 "C:\Program Files (x86)\Microchip\xc8\v1.12\include\pic16f88.h"
  1283                           PIR2 equ 0Dh ;# 
  1284                           # 463 "C:\Program Files (x86)\Microchip\xc8\v1.12\include\pic16f88.h"
  1285                           TMR1 equ 0Eh ;# 
  1286                           # 469 "C:\Program Files (x86)\Microchip\xc8\v1.12\include\pic16f88.h"
  1287                           TMR1L equ 0Eh ;# 
  1288                           # 475 "C:\Program Files (x86)\Microchip\xc8\v1.12\include\pic16f88.h"
  1289                           TMR1H equ 0Fh ;# 
  1290                           # 481 "C:\Program Files (x86)\Microchip\xc8\v1.12\include\pic16f88.h"
  1291                           T1CON equ 010h ;# 
  1292                           # 552 "C:\Program Files (x86)\Microchip\xc8\v1.12\include\pic16f88.h"
  1293                           TMR2 equ 011h ;# 
  1294                           # 558 "C:\Program Files (x86)\Microchip\xc8\v1.12\include\pic16f88.h"
  1295                           T2CON equ 012h ;# 
  1296                           # 628 "C:\Program Files (x86)\Microchip\xc8\v1.12\include\pic16f88.h"
  1297                           SSPBUF equ 013h ;# 
  1298                           # 634 "C:\Program Files (x86)\Microchip\xc8\v1.12\include\pic16f88.h"
  1299                           SSPCON equ 014h ;# 
  1300                           # 703 "C:\Program Files (x86)\Microchip\xc8\v1.12\include\pic16f88.h"
  1301                           CCPR1 equ 015h ;# 
  1302                           # 709 "C:\Program Files (x86)\Microchip\xc8\v1.12\include\pic16f88.h"
  1303                           CCPR1L equ 015h ;# 
  1304                           # 715 "C:\Program Files (x86)\Microchip\xc8\v1.12\include\pic16f88.h"
  1305                           CCPR1H equ 016h ;# 
  1306                           # 721 "C:\Program Files (x86)\Microchip\xc8\v1.12\include\pic16f88.h"
  1307                           CCP1CON equ 017h ;# 
  1308                           # 778 "C:\Program Files (x86)\Microchip\xc8\v1.12\include\pic16f88.h"
  1309                           RCSTA equ 018h ;# 
  1310                           # 872 "C:\Program Files (x86)\Microchip\xc8\v1.12\include\pic16f88.h"
  1311                           TXREG equ 019h ;# 
  1312                           # 878 "C:\Program Files (x86)\Microchip\xc8\v1.12\include\pic16f88.h"
  1313                           RCREG equ 01Ah ;# 
  1314                           # 884 "C:\Program Files (x86)\Microchip\xc8\v1.12\include\pic16f88.h"
  1315                           ADRESH equ 01Eh ;# 
  1316                           # 890 "C:\Program Files (x86)\Microchip\xc8\v1.12\include\pic16f88.h"
  1317                           ADCON0 equ 01Fh ;# 
  1318                           # 985 "C:\Program Files (x86)\Microchip\xc8\v1.12\include\pic16f88.h"
  1319                           OPTION_REG equ 081h ;# 
  1320                           # 1054 "C:\Program Files (x86)\Microchip\xc8\v1.12\include\pic16f88.h"
  1321                           TRISA equ 085h ;# 
  1322                           # 1115 "C:\Program Files (x86)\Microchip\xc8\v1.12\include\pic16f88.h"
  1323                           TRISB equ 086h ;# 
  1324                           # 1176 "C:\Program Files (x86)\Microchip\xc8\v1.12\include\pic16f88.h"
  1325                           PIE1 equ 08Ch ;# 
  1326                           # 1231 "C:\Program Files (x86)\Microchip\xc8\v1.12\include\pic16f88.h"
  1327                           PIE2 equ 08Dh ;# 
  1328                           # 1264 "C:\Program Files (x86)\Microchip\xc8\v1.12\include\pic16f88.h"
  1329                           PCON equ 08Eh ;# 
  1330                           # 1297 "C:\Program Files (x86)\Microchip\xc8\v1.12\include\pic16f88.h"
  1331                           OSCCON equ 08Fh ;# 
  1332                           # 1367 "C:\Program Files (x86)\Microchip\xc8\v1.12\include\pic16f88.h"
  1333                           OSCTUNE equ 090h ;# 
  1334                           # 1424 "C:\Program Files (x86)\Microchip\xc8\v1.12\include\pic16f88.h"
  1335                           PR2 equ 092h ;# 
  1336                           # 1430 "C:\Program Files (x86)\Microchip\xc8\v1.12\include\pic16f88.h"
  1337                           SSPADD equ 093h ;# 
  1338                           # 1436 "C:\Program Files (x86)\Microchip\xc8\v1.12\include\pic16f88.h"
  1339                           SSPSTAT equ 094h ;# 
  1340                           # 1604 "C:\Program Files (x86)\Microchip\xc8\v1.12\include\pic16f88.h"
  1341                           TXSTA equ 098h ;# 
  1342                           # 1684 "C:\Program Files (x86)\Microchip\xc8\v1.12\include\pic16f88.h"
  1343                           SPBRG equ 099h ;# 
  1344                           # 1690 "C:\Program Files (x86)\Microchip\xc8\v1.12\include\pic16f88.h"
  1345                           ANSEL equ 09Bh ;# 
  1346                           # 1745 "C:\Program Files (x86)\Microchip\xc8\v1.12\include\pic16f88.h"
  1347                           CMCON equ 09Ch ;# 
  1348                           # 1814 "C:\Program Files (x86)\Microchip\xc8\v1.12\include\pic16f88.h"
  1349                           CVRCON equ 09Dh ;# 
  1350                           # 1878 "C:\Program Files (x86)\Microchip\xc8\v1.12\include\pic16f88.h"
  1351                           ADRESL equ 09Eh ;# 
  1352                           # 1884 "C:\Program Files (x86)\Microchip\xc8\v1.12\include\pic16f88.h"
  1353                           ADCON1 equ 09Fh ;# 
  1354                           # 1931 "C:\Program Files (x86)\Microchip\xc8\v1.12\include\pic16f88.h"
  1355                           WDTCON equ 0105h ;# 
  1356                           # 1988 "C:\Program Files (x86)\Microchip\xc8\v1.12\include\pic16f88.h"
  1357                           EEDATA equ 010Ch ;# 
  1358                           # 1994 "C:\Program Files (x86)\Microchip\xc8\v1.12\include\pic16f88.h"
  1359                           EEADR equ 010Dh ;# 
  1360                           # 2000 "C:\Program Files (x86)\Microchip\xc8\v1.12\include\pic16f88.h"
  1361                           EEDATH equ 010Eh ;# 
  1362                           # 2006 "C:\Program Files (x86)\Microchip\xc8\v1.12\include\pic16f88.h"
  1363                           EEADRH equ 010Fh ;# 
  1364                           # 2012 "C:\Program Files (x86)\Microchip\xc8\v1.12\include\pic16f88.h"
  1365                           EECON1 equ 018Ch ;# 
  1366                           # 2062 "C:\Program Files (x86)\Microchip\xc8\v1.12\include\pic16f88.h"
  1367                           EECON2 equ 018Dh ;# 
  1368                           # 46 "C:\Program Files (x86)\Microchip\xc8\v1.12\include\pic16f88.h"
  1369                           INDF equ 00h ;# 
  1370                           # 52 "C:\Program Files (x86)\Microchip\xc8\v1.12\include\pic16f88.h"
  1371                           TMR0 equ 01h ;# 
  1372                           # 58 "C:\Program Files (x86)\Microchip\xc8\v1.12\include\pic16f88.h"
  1373                           PCL equ 02h ;# 
  1374                           # 64 "C:\Program Files (x86)\Microchip\xc8\v1.12\include\pic16f88.h"
  1375                           STATUS equ 03h ;# 
  1376                           # 151 "C:\Program Files (x86)\Microchip\xc8\v1.12\include\pic16f88.h"
  1377                           FSR equ 04h ;# 
  1378                           # 157 "C:\Program Files (x86)\Microchip\xc8\v1.12\include\pic16f88.h"
  1379                           PORTA equ 05h ;# 
  1380                           # 218 "C:\Program Files (x86)\Microchip\xc8\v1.12\include\pic16f88.h"
  1381                           PORTB equ 06h ;# 
  1382                           # 279 "C:\Program Files (x86)\Microchip\xc8\v1.12\include\pic16f88.h"
  1383                           PCLATH equ 0Ah ;# 
  1384                           # 298 "C:\Program Files (x86)\Microchip\xc8\v1.12\include\pic16f88.h"
  1385                           INTCON equ 0Bh ;# 
  1386                           # 375 "C:\Program Files (x86)\Microchip\xc8\v1.12\include\pic16f88.h"
  1387                           PIR1 equ 0Ch ;# 
  1388                           # 430 "C:\Program Files (x86)\Microchip\xc8\v1.12\include\pic16f88.h"
  1389                           PIR2 equ 0Dh ;# 
  1390                           # 463 "C:\Program Files (x86)\Microchip\xc8\v1.12\include\pic16f88.h"
  1391                           TMR1 equ 0Eh ;# 
  1392                           # 469 "C:\Program Files (x86)\Microchip\xc8\v1.12\include\pic16f88.h"
  1393                           TMR1L equ 0Eh ;# 
  1394                           # 475 "C:\Program Files (x86)\Microchip\xc8\v1.12\include\pic16f88.h"
  1395                           TMR1H equ 0Fh ;# 
  1396                           # 481 "C:\Program Files (x86)\Microchip\xc8\v1.12\include\pic16f88.h"
  1397                           T1CON equ 010h ;# 
  1398                           # 552 "C:\Program Files (x86)\Microchip\xc8\v1.12\include\pic16f88.h"
  1399                           TMR2 equ 011h ;# 
  1400                           # 558 "C:\Program Files (x86)\Microchip\xc8\v1.12\include\pic16f88.h"
  1401                           T2CON equ 012h ;# 
  1402                           # 628 "C:\Program Files (x86)\Microchip\xc8\v1.12\include\pic16f88.h"
  1403                           SSPBUF equ 013h ;# 
  1404                           # 634 "C:\Program Files (x86)\Microchip\xc8\v1.12\include\pic16f88.h"
  1405                           SSPCON equ 014h ;# 
  1406                           # 703 "C:\Program Files (x86)\Microchip\xc8\v1.12\include\pic16f88.h"
  1407                           CCPR1 equ 015h ;# 
  1408                           # 709 "C:\Program Files (x86)\Microchip\xc8\v1.12\include\pic16f88.h"
  1409                           CCPR1L equ 015h ;# 
  1410                           # 715 "C:\Program Files (x86)\Microchip\xc8\v1.12\include\pic16f88.h"
  1411                           CCPR1H equ 016h ;# 
  1412                           # 721 "C:\Program Files (x86)\Microchip\xc8\v1.12\include\pic16f88.h"
  1413                           CCP1CON equ 017h ;# 
  1414                           # 778 "C:\Program Files (x86)\Microchip\xc8\v1.12\include\pic16f88.h"
  1415                           RCSTA equ 018h ;# 
  1416                           # 872 "C:\Program Files (x86)\Microchip\xc8\v1.12\include\pic16f88.h"
  1417                           TXREG equ 019h ;# 
  1418                           # 878 "C:\Program Files (x86)\Microchip\xc8\v1.12\include\pic16f88.h"
  1419                           RCREG equ 01Ah ;# 
  1420                           # 884 "C:\Program Files (x86)\Microchip\xc8\v1.12\include\pic16f88.h"
  1421                           ADRESH equ 01Eh ;# 
  1422                           # 890 "C:\Program Files (x86)\Microchip\xc8\v1.12\include\pic16f88.h"
  1423                           ADCON0 equ 01Fh ;# 
  1424                           # 985 "C:\Program Files (x86)\Microchip\xc8\v1.12\include\pic16f88.h"
  1425                           OPTION_REG equ 081h ;# 
  1426                           # 1054 "C:\Program Files (x86)\Microchip\xc8\v1.12\include\pic16f88.h"
  1427                           TRISA equ 085h ;# 
  1428                           # 1115 "C:\Program Files (x86)\Microchip\xc8\v1.12\include\pic16f88.h"
  1429                           TRISB equ 086h ;# 
  1430                           # 1176 "C:\Program Files (x86)\Microchip\xc8\v1.12\include\pic16f88.h"
  1431                           PIE1 equ 08Ch ;# 
  1432                           # 1231 "C:\Program Files (x86)\Microchip\xc8\v1.12\include\pic16f88.h"
  1433                           PIE2 equ 08Dh ;# 
  1434                           # 1264 "C:\Program Files (x86)\Microchip\xc8\v1.12\include\pic16f88.h"
  1435                           PCON equ 08Eh ;# 
  1436                           # 1297 "C:\Program Files (x86)\Microchip\xc8\v1.12\include\pic16f88.h"
  1437                           OSCCON equ 08Fh ;# 
  1438                           # 1367 "C:\Program Files (x86)\Microchip\xc8\v1.12\include\pic16f88.h"
  1439                           OSCTUNE equ 090h ;# 
  1440                           # 1424 "C:\Program Files (x86)\Microchip\xc8\v1.12\include\pic16f88.h"
  1441                           PR2 equ 092h ;# 
  1442                           # 1430 "C:\Program Files (x86)\Microchip\xc8\v1.12\include\pic16f88.h"
  1443                           SSPADD equ 093h ;# 
  1444                           # 1436 "C:\Program Files (x86)\Microchip\xc8\v1.12\include\pic16f88.h"
  1445                           SSPSTAT equ 094h ;# 
  1446                           # 1604 "C:\Program Files (x86)\Microchip\xc8\v1.12\include\pic16f88.h"
  1447                           TXSTA equ 098h ;# 
  1448                           # 1684 "C:\Program Files (x86)\Microchip\xc8\v1.12\include\pic16f88.h"
  1449                           SPBRG equ 099h ;# 
  1450                           # 1690 "C:\Program Files (x86)\Microchip\xc8\v1.12\include\pic16f88.h"
  1451                           ANSEL equ 09Bh ;# 
  1452                           # 1745 "C:\Program Files (x86)\Microchip\xc8\v1.12\include\pic16f88.h"
  1453                           CMCON equ 09Ch ;# 
  1454                           # 1814 "C:\Program Files (x86)\Microchip\xc8\v1.12\include\pic16f88.h"
  1455                           CVRCON equ 09Dh ;# 
  1456                           # 1878 "C:\Program Files (x86)\Microchip\xc8\v1.12\include\pic16f88.h"
  1457                           ADRESL equ 09Eh ;# 
  1458                           # 1884 "C:\Program Files (x86)\Microchip\xc8\v1.12\include\pic16f88.h"
  1459                           ADCON1 equ 09Fh ;# 
  1460                           # 1931 "C:\Program Files (x86)\Microchip\xc8\v1.12\include\pic16f88.h"
  1461                           WDTCON equ 0105h ;# 
  1462                           # 1988 "C:\Program Files (x86)\Microchip\xc8\v1.12\include\pic16f88.h"
  1463                           EEDATA equ 010Ch ;# 
  1464                           # 1994 "C:\Program Files (x86)\Microchip\xc8\v1.12\include\pic16f88.h"
  1465                           EEADR equ 010Dh ;# 
  1466                           # 2000 "C:\Program Files (x86)\Microchip\xc8\v1.12\include\pic16f88.h"
  1467                           EEDATH equ 010Eh ;# 
  1468                           # 2006 "C:\Program Files (x86)\Microchip\xc8\v1.12\include\pic16f88.h"
  1469                           EEADRH equ 010Fh ;# 
  1470                           # 2012 "C:\Program Files (x86)\Microchip\xc8\v1.12\include\pic16f88.h"
  1471                           EECON1 equ 018Ch ;# 
  1472                           # 2062 "C:\Program Files (x86)\Microchip\xc8\v1.12\include\pic16f88.h"
  1473                           EECON2 equ 018Dh ;# 
  1474                           # 46 "C:\Program Files (x86)\Microchip\xc8\v1.12\include\pic16f88.h"
  1475                           INDF equ 00h ;# 
  1476                           # 52 "C:\Program Files (x86)\Microchip\xc8\v1.12\include\pic16f88.h"
  1477                           TMR0 equ 01h ;# 
  1478                           # 58 "C:\Program Files (x86)\Microchip\xc8\v1.12\include\pic16f88.h"
  1479                           PCL equ 02h ;# 
  1480                           # 64 "C:\Program Files (x86)\Microchip\xc8\v1.12\include\pic16f88.h"
  1481                           STATUS equ 03h ;# 
  1482                           # 151 "C:\Program Files (x86)\Microchip\xc8\v1.12\include\pic16f88.h"
  1483                           FSR equ 04h ;# 
  1484                           # 157 "C:\Program Files (x86)\Microchip\xc8\v1.12\include\pic16f88.h"
  1485                           PORTA equ 05h ;# 
  1486                           # 218 "C:\Program Files (x86)\Microchip\xc8\v1.12\include\pic16f88.h"
  1487                           PORTB equ 06h ;# 
  1488                           # 279 "C:\Program Files (x86)\Microchip\xc8\v1.12\include\pic16f88.h"
  1489                           PCLATH equ 0Ah ;# 
  1490                           # 298 "C:\Program Files (x86)\Microchip\xc8\v1.12\include\pic16f88.h"
  1491                           INTCON equ 0Bh ;# 
  1492  0740                     __pmaintext:	;psect for function _main
  1493                           opt subtitle "HI-TECH Software Omniscient Code Generator (Lite mode) build 49521"
  1494                           
  1495                           opt pagewidth 120
  1496                           
  1497  0033                     	__size_of_main	equ	__end_of_main-_main
  1498                           opt subtitle "HI-TECH Software Omniscient Code Generator (Lite mode) build 49521"
  1499  0740                     _main:	
  1500                           opt subtitle "HI-TECH Software Omniscient Code Generator (Lite mode) build 49521"
  1501                           
  1502                           opt pagewidth 120
  1503                           
  1504  0740                     l2294:	
  1505                           opt subtitle "HI-TECH Software Omniscient Code Generator (Lite mode) build 49521"
  1506  0740  307C               	movlw	(07Ch)
  1507  0741  1683               	bsf	status, 5	;RP0=1, select bank1
  1508  0742  1303               	bcf	status, 6	;RP1=0, select bank1
  1509  0743  008F               	movwf	(143)^080h	;volatile
  1510                           opt subtitle "HI-TECH Software Omniscient Code Generator (Lite mode) build 49521"
  1511                           
  1512  0744                     l2296:	
  1513                           opt subtitle "HI-TECH Software Omniscient Code Generator (Lite mode) build 49521"
  1514  0744  019B               	clrf	(155)^080h	;volatile
  1515                           opt subtitle "HI-TECH Software Omniscient Code Generator (Lite mode) build 49521"
  1516                           
  1517  0745                     l2298:	
  1518                           opt subtitle "HI-TECH Software Omniscient Code Generator (Lite mode) build 49521"
  1519  0745  30E0               	movlw	(0E0h)
  1520  0746  0085               	movwf	(133)^080h	;volatile
  1521                           opt subtitle "HI-TECH Software Omniscient Code Generator (Lite mode) build 49521"
  1522                           
  1523  0747                     l2300:	
  1524                           opt subtitle "HI-TECH Software Omniscient Code Generator (Lite mode) build 49521"
  1525  0747  30FF               	movlw	(0FFh)
  1526  0748  0086               	movwf	(134)^080h	;volatile
  1527                           opt subtitle "HI-TECH Software Omniscient Code Generator (Lite mode) build 49521"
  1528                           
  1529  0749                     l2302:	
  1530                           opt subtitle "HI-TECH Software Omniscient Code Generator (Lite mode) build 49521"
  1531  0749  3010               	movlw	(010h)
  1532  074A  1283               	bcf	status, 5	;RP0=0, select bank0
  1533  074B  1303               	bcf	status, 6	;RP1=0, select bank0
  1534  074C  00EB               	movwf	(??_main+0)+0
  1535  074D  086B               	movf	(??_main+0)+0,w
  1536  074E  00CF               	movwf	(?_lcd_init)
  1537  074F  3002               	movlw	(02h)
  1538  0750  00EC               	movwf	(??_main+1)+0
  1539  0751  086C               	movf	(??_main+1)+0,w
  1540  0752  00D0               	movwf	0+(?_lcd_init)+01h
  1541  0753  3000               	movlw	(0)
  1542  0754  118A  225A  118A   	fcall	_lcd_init
  1543                           opt subtitle "HI-TECH Software Omniscient Code Generator (Lite mode) build 49521"
  1544                           
  1545  0757                     l2304:	
  1546                           opt subtitle "HI-TECH Software Omniscient Code Generator (Lite mode) build 49521"
  1547  0757  118A  24F0  118A   	fcall	_tick_init
  1548                           opt subtitle "HI-TECH Software Omniscient Code Generator (Lite mode) build 49521"
  1549                           
  1550  075A                     l2306:	
  1551                           opt subtitle "HI-TECH Software Omniscient Code Generator (Lite mode) build 49521"
  1552  075A  118A  27FA  118A   	fcall	_dhtlib_init
  1553                           opt subtitle "HI-TECH Software Omniscient Code Generator (Lite mode) build 49521"
  1554                           
  1555  075D                     l2308:	
  1556                           opt subtitle "HI-TECH Software Omniscient Code Generator (Lite mode) build 49521"
  1557  075D  158A  277D  118A   	fcall	_lcd_on
  1558                           opt subtitle "HI-TECH Software Omniscient Code Generator (Lite mode) build 49521"
  1559                           
  1560  0760                     l2310:	
  1561                           opt subtitle "HI-TECH Software Omniscient Code Generator (Lite mode) build 49521"
  1562  0760  303C               	movlw	low((STR_1-__stringbase))
  1563  0761  1283               	bcf	status, 5	;RP0=0, select bank0
  1564  0762  1303               	bcf	status, 6	;RP1=0, select bank0
  1565  0763  00CF               	movwf	(?_lcd_puts)
  1566  0764  3080               	movlw	80h
  1567  0765  00D0               	movwf	(?_lcd_puts+1)
  1568  0766  118A  24A9  118A   	fcall	_lcd_puts
  1569  0769  2F6A               	goto	l2312
  1570                           opt subtitle "HI-TECH Software Omniscient Code Generator (Lite mode) build 49521"
  1571                           
  1572                           opt pagewidth 120
  1573  076A                     l39:	
  1574                           opt subtitle "HI-TECH Software Omniscient Code Generator (Lite mode) build 49521"
  1575                           
  1576  076A                     l2312:	
  1577                           opt subtitle "HI-TECH Software Omniscient Code Generator (Lite mode) build 49521"
  1578  076A  118A  25AB  118A   	fcall	_led_task
  1579                           opt subtitle "HI-TECH Software Omniscient Code Generator (Lite mode) build 49521"
  1580                           
  1581  076D                     l2314:	
  1582                           opt subtitle "HI-TECH Software Omniscient Code Generator (Lite mode) build 49521"
  1583  076D  118A  2401  118A   	fcall	_dht11_task
  1584                           opt subtitle "HI-TECH Software Omniscient Code Generator (Lite mode) build 49521"
  1585                           
  1586  0770  2F6A               	goto	l2312
  1587                           opt subtitle "HI-TECH Software Omniscient Code Generator (Lite mode) build 49521"
  1588  0771                     l40:	
  1589                           opt subtitle "HI-TECH Software Omniscient Code Generator (Lite mode) build 49521"
  1590                           
  1591  0771                     l41:	
  1592                           opt subtitle "HI-TECH Software Omniscient Code Generator (Lite mode) build 49521"
  1593  0771  118A  2811         	ljmp	start
  1594                           opt subtitle "HI-TECH Software Omniscient Code Generator (Lite mode) build 49521"
  1595                           
  1596  0773                     	__end_of_main:
  1597                           opt subtitle "HI-TECH Software Omniscient Code Generator (Lite mode) build 49521"
  1598                           
  1599                           opt pagewidth 120
  1600                           
  1601                           	opt lm
  1602                           
  1603                           	processor	16F88
  1604                           clrc	macro
  1605                           	bcf	3,0
  1606                           	endm
  1607                           clrz	macro
  1608                           	bcf	3,2
  1609                           	endm
  1610                           setc	macro
  1611                           	bsf	3,0
  1612                           	endm
  1613                           setz	macro
  1614                           	bsf	3,2
  1615                           	endm
  1616                           skipc	macro
  1617                           	btfss	3,0
  1618                           	endm
  1619                           skipz	macro
  1620                           	btfss	3,2
  1621                           	endm
  1622                           skipnc	macro
  1623                           	btfsc	3,0
  1624                           	endm
  1625                           skipnz	macro
  1626                           	btfsc	3,2
  1627                           	endm
  1628                           indf	equ	0
  1629                           indf0	equ	0
  1630                           pc	equ	2
  1631                           pcl	equ	2
  1632                           status	equ	3
  1633                           fsr	equ	4
  1634                           fsr0	equ	4
  1635                           c	equ	1
  1636                           z	equ	0
  1637  025A                     __ptext882:	;psect for function _lcd_init
  1638                           opt subtitle "HI-TECH Software Omniscient Code Generator (Lite mode) build 49521"
  1639                           
  1640                           opt pagewidth 120
  1641                           
  1642  00D8                     	__size_of_lcd_init	equ	__end_of_lcd_init-_lcd_init
  1643                           opt subtitle "HI-TECH Software Omniscient Code Generator (Lite mode) build 49521"
  1644  025A                     _lcd_init:	
  1645                           opt subtitle "HI-TECH Software Omniscient Code Generator (Lite mode) build 49521"
  1646                           
  1647                           opt pagewidth 120
  1648                           
  1649  025A  1283               	bcf	status, 5	;RP0=0, select bank0
  1650  025B  1303               	bcf	status, 6	;RP1=0, select bank0
  1651  025C  00D4               	movwf	(lcd_init@iodata)
  1652                           opt subtitle "HI-TECH Software Omniscient Code Generator (Lite mode) build 49521"
  1653  025D                     l2316:	
  1654                           opt subtitle "HI-TECH Software Omniscient Code Generator (Lite mode) build 49521"
  1655  025D  0854               	movf	(lcd_init@iodata),w
  1656  025E  118A  279F  118A   	fcall	_lcd_ioinit
  1657  0261  1283               	bcf	status, 5	;RP0=0, select bank0
  1658  0262  1303               	bcf	status, 6	;RP1=0, select bank0
  1659  0263  00D1               	movwf	(??_lcd_init+0)+0
  1660  0264  0851               	movf	(??_lcd_init+0)+0,w
  1661  0265  00EF               	movwf	(_iomode)
  1662                           opt subtitle "HI-TECH Software Omniscient Code Generator (Lite mode) build 49521"
  1663                           
  1664  0266                     l2318:	
  1665                           opt subtitle "HI-TECH Software Omniscient Code Generator (Lite mode) build 49521"
  1666  0266  0850               	movf	(lcd_init@rows),w
  1667  0267  00D1               	movwf	(??_lcd_init+0)+0
  1668  0268  0851               	movf	(??_lcd_init+0)+0,w
  1669  0269  00EE               	movwf	(_lcdrows)
  1670                           opt subtitle "HI-TECH Software Omniscient Code Generator (Lite mode) build 49521"
  1671                           
  1672  026A                     l2320:	
  1673                           opt subtitle "HI-TECH Software Omniscient Code Generator (Lite mode) build 49521"
  1674  026A  084F               	movf	(lcd_init@cols),w
  1675  026B  00D1               	movwf	(??_lcd_init+0)+0
  1676  026C  0851               	movf	(??_lcd_init+0)+0,w
  1677  026D  00ED               	movwf	(_lcdcolumns)
  1678                           opt subtitle "HI-TECH Software Omniscient Code Generator (Lite mode) build 49521"
  1679                           
  1680  026E                     l2322:	
  1681                           opt subtitle "HI-TECH Software Omniscient Code Generator (Lite mode) build 49521"
  1682                           
  1683  026E  3002               movlw  2
  1684  026F  00D3               movwf	((??_lcd_init+0)+0+2),f
  1685  0270  3004               movlw	4
  1686  0271  00D2               movwf	((??_lcd_init+0)+0+1),f
  1687  0272  30BA               	movlw	186
  1688  0273  00D1               movwf	((??_lcd_init+0)+0),f
  1689  0274                     u2837:
  1690  0274  0BD1               	decfsz	((??_lcd_init+0)+0),f
  1691  0275  2A74               	goto	u2837
  1692  0276  0BD2               	decfsz	((??_lcd_init+0)+0+1),f
  1693  0277  2A74               	goto	u2837
  1694  0278  0BD3               	decfsz	((??_lcd_init+0)+0+2),f
  1695  0279  2A74               	goto	u2837
  1696  027A  0000               	nop
  1697                           opt subtitle "HI-TECH Software Omniscient Code Generator (Lite mode) build 49521"
  1698                           
  1699                           opt pagewidth 120
  1700                           
  1701  027B                     l2324:	
  1702                           opt subtitle "HI-TECH Software Omniscient Code Generator (Lite mode) build 49521"
  1703  027B  1283               	bcf	status, 5	;RP0=0, select bank0
  1704  027C  1303               	bcf	status, 6	;RP1=0, select bank0
  1705  027D  086F               	movf	(_iomode),w
  1706  027E  3A04               	xorlw	04h
  1707  027F  1D03               	skipz
  1708  0280  2A82               	goto	u1981
  1709  0281  2A83               	goto	u1980
  1710  0282                     u1981:
  1711  0282  2AC1               	goto	l2340
  1712  0283                     u1980:
  1713                           opt subtitle "HI-TECH Software Omniscient Code Generator (Lite mode) build 49521"
  1714                           
  1715  0283                     l2326:	
  1716                           opt subtitle "HI-TECH Software Omniscient Code Generator (Lite mode) build 49521"
  1717  0283  3003               	movlw	(03h)
  1718  0284  118A  2644  118A   	fcall	_lcd_iowrite4
  1719                           opt subtitle "HI-TECH Software Omniscient Code Generator (Lite mode) build 49521"
  1720                           
  1721  0287                     l2328:	
  1722                           opt subtitle "HI-TECH Software Omniscient Code Generator (Lite mode) build 49521"
  1723                           
  1724  0287  300D               movlw	13
  1725  0288  1283               	bcf	status, 5	;RP0=0, select bank0
  1726  0289  1303               	bcf	status, 6	;RP1=0, select bank0
  1727  028A  00D2               movwf	((??_lcd_init+0)+0+1),f
  1728  028B  30FB               	movlw	251
  1729  028C  00D1               movwf	((??_lcd_init+0)+0),f
  1730  028D                     u2847:
  1731  028D  0BD1               	decfsz	((??_lcd_init+0)+0),f
  1732  028E  2A8D               	goto	u2847
  1733  028F  0BD2               	decfsz	((??_lcd_init+0)+0+1),f
  1734  0290  2A8D               	goto	u2847
  1735  0291  2A92               	nop2
  1736                           opt subtitle "HI-TECH Software Omniscient Code Generator (Lite mode) build 49521"
  1737                           
  1738                           opt pagewidth 120
  1739                           
  1740  0292                     l2330:	
  1741                           opt subtitle "HI-TECH Software Omniscient Code Generator (Lite mode) build 49521"
  1742  0292  3003               	movlw	(03h)
  1743  0293  118A  2644  118A   	fcall	_lcd_iowrite4
  1744                           opt subtitle "HI-TECH Software Omniscient Code Generator (Lite mode) build 49521"
  1745                           
  1746                           opt pagewidth 120
  1747  0296  304F               movlw	79
  1748  0297  1283               	bcf	status, 5	;RP0=0, select bank0
  1749  0298  1303               	bcf	status, 6	;RP1=0, select bank0
  1750  0299  00D1               movwf	(??_lcd_init+0)+0,f
  1751  029A                     u2857:
  1752  029A  0BD1               decfsz	(??_lcd_init+0)+0,f
  1753  029B  2A9A               	goto	u2857
  1754  029C  2A9D               	nop2	;nop
  1755                           opt subtitle "HI-TECH Software Omniscient Code Generator (Lite mode) build 49521"
  1756                           
  1757                           opt pagewidth 120
  1758                           
  1759  029D                     l2332:	
  1760                           opt subtitle "HI-TECH Software Omniscient Code Generator (Lite mode) build 49521"
  1761  029D  3003               	movlw	(03h)
  1762  029E  118A  2644  118A   	fcall	_lcd_iowrite4
  1763                           opt subtitle "HI-TECH Software Omniscient Code Generator (Lite mode) build 49521"
  1764                           
  1765  02A1                     l2334:	
  1766                           opt subtitle "HI-TECH Software Omniscient Code Generator (Lite mode) build 49521"
  1767                           
  1768  02A1  304F               movlw	79
  1769  02A2  1283               	bcf	status, 5	;RP0=0, select bank0
  1770  02A3  1303               	bcf	status, 6	;RP1=0, select bank0
  1771  02A4  00D1               movwf	(??_lcd_init+0)+0,f
  1772  02A5                     u2867:
  1773  02A5  0BD1               decfsz	(??_lcd_init+0)+0,f
  1774  02A6  2AA5               	goto	u2867
  1775  02A7  2AA8               	nop2	;nop
  1776                           opt subtitle "HI-TECH Software Omniscient Code Generator (Lite mode) build 49521"
  1777                           
  1778                           opt pagewidth 120
  1779                           
  1780  02A8  3002               	movlw	(02h)
  1781  02A9  118A  2644  118A   	fcall	_lcd_iowrite4
  1782                           opt subtitle "HI-TECH Software Omniscient Code Generator (Lite mode) build 49521"
  1783                           
  1784  02AC                     l2336:	
  1785                           opt subtitle "HI-TECH Software Omniscient Code Generator (Lite mode) build 49521"
  1786                           
  1787  02AC  304F               movlw	79
  1788  02AD  1283               	bcf	status, 5	;RP0=0, select bank0
  1789  02AE  1303               	bcf	status, 6	;RP1=0, select bank0
  1790  02AF  00D1               movwf	(??_lcd_init+0)+0,f
  1791  02B0                     u2877:
  1792  02B0  0BD1               decfsz	(??_lcd_init+0)+0,f
  1793  02B1  2AB0               	goto	u2877
  1794  02B2  2AB3               	nop2	;nop
  1795                           opt subtitle "HI-TECH Software Omniscient Code Generator (Lite mode) build 49521"
  1796                           
  1797                           opt pagewidth 120
  1798                           
  1799  02B3                     l2338:	
  1800                           opt subtitle "HI-TECH Software Omniscient Code Generator (Lite mode) build 49521"
  1801  02B3  1283               	bcf	status, 5	;RP0=0, select bank0
  1802  02B4  1303               	bcf	status, 6	;RP1=0, select bank0
  1803  02B5  01CC               	clrf	(?_lcd_send)
  1804  02B6  302C               	movlw	(02Ch)
  1805  02B7  118A  26CF  118A   	fcall	_lcd_send
  1806                           opt subtitle "HI-TECH Software Omniscient Code Generator (Lite mode) build 49521"
  1807                           
  1808                           opt pagewidth 120
  1809  02BA  3021               movlw	33
  1810  02BB  1283               	bcf	status, 5	;RP0=0, select bank0
  1811  02BC  1303               	bcf	status, 6	;RP1=0, select bank0
  1812  02BD  00D1               movwf	(??_lcd_init+0)+0,f
  1813  02BE                     u2887:
  1814  02BE  0BD1               decfsz	(??_lcd_init+0)+0,f
  1815  02BF  2ABE               	goto	u2887
  1816                           opt subtitle "HI-TECH Software Omniscient Code Generator (Lite mode) build 49521"
  1817                           
  1818                           opt pagewidth 120
  1819                           
  1820  02C0  2B04               	goto	l2354
  1821                           opt subtitle "HI-TECH Software Omniscient Code Generator (Lite mode) build 49521"
  1822  02C1                     l182:	
  1823                           opt subtitle "HI-TECH Software Omniscient Code Generator (Lite mode) build 49521"
  1824  02C1                     l2340:	
  1825  02C1  1283               	bcf	status, 5	;RP0=0, select bank0
  1826  02C2  1303               	bcf	status, 6	;RP1=0, select bank0
  1827  02C3  086F               	movf	(_iomode),w
  1828  02C4  3A08               	xorlw	08h
  1829  02C5  1D03               	skipz
  1830  02C6  2AC8               	goto	u1991
  1831  02C7  2AC9               	goto	u1990
  1832  02C8                     u1991:
  1833  02C8  2B04               	goto	l2354
  1834  02C9                     u1990:
  1835                           opt subtitle "HI-TECH Software Omniscient Code Generator (Lite mode) build 49521"
  1836                           
  1837  02C9                     l2342:	
  1838                           opt subtitle "HI-TECH Software Omniscient Code Generator (Lite mode) build 49521"
  1839  02C9  01CC               	clrf	(?_lcd_send)
  1840  02CA  3020               	movlw	(020h)
  1841  02CB  118A  26CF  118A   	fcall	_lcd_send
  1842                           opt subtitle "HI-TECH Software Omniscient Code Generator (Lite mode) build 49521"
  1843                           
  1844  02CE                     l2344:	
  1845                           opt subtitle "HI-TECH Software Omniscient Code Generator (Lite mode) build 49521"
  1846                           
  1847  02CE  300D               movlw	13
  1848  02CF  1283               	bcf	status, 5	;RP0=0, select bank0
  1849  02D0  1303               	bcf	status, 6	;RP1=0, select bank0
  1850  02D1  00D2               movwf	((??_lcd_init+0)+0+1),f
  1851  02D2  30FB               	movlw	251
  1852  02D3  00D1               movwf	((??_lcd_init+0)+0),f
  1853  02D4                     u2897:
  1854  02D4  0BD1               	decfsz	((??_lcd_init+0)+0),f
  1855  02D5  2AD4               	goto	u2897
  1856  02D6  0BD2               	decfsz	((??_lcd_init+0)+0+1),f
  1857  02D7  2AD4               	goto	u2897
  1858  02D8  2AD9               	nop2
  1859                           opt subtitle "HI-TECH Software Omniscient Code Generator (Lite mode) build 49521"
  1860                           
  1861                           opt pagewidth 120
  1862                           
  1863  02D9                     l2346:	
  1864                           opt subtitle "HI-TECH Software Omniscient Code Generator (Lite mode) build 49521"
  1865  02D9  1283               	bcf	status, 5	;RP0=0, select bank0
  1866  02DA  1303               	bcf	status, 6	;RP1=0, select bank0
  1867  02DB  01CC               	clrf	(?_lcd_send)
  1868  02DC  3020               	movlw	(020h)
  1869  02DD  118A  26CF  118A   	fcall	_lcd_send
  1870                           opt subtitle "HI-TECH Software Omniscient Code Generator (Lite mode) build 49521"
  1871                           
  1872                           opt pagewidth 120
  1873  02E0  304F               movlw	79
  1874  02E1  1283               	bcf	status, 5	;RP0=0, select bank0
  1875  02E2  1303               	bcf	status, 6	;RP1=0, select bank0
  1876  02E3  00D1               movwf	(??_lcd_init+0)+0,f
  1877  02E4                     u2907:
  1878  02E4  0BD1               decfsz	(??_lcd_init+0)+0,f
  1879  02E5  2AE4               	goto	u2907
  1880  02E6  2AE7               	nop2	;nop
  1881                           opt subtitle "HI-TECH Software Omniscient Code Generator (Lite mode) build 49521"
  1882                           
  1883                           opt pagewidth 120
  1884                           
  1885  02E7                     l2348:	
  1886                           opt subtitle "HI-TECH Software Omniscient Code Generator (Lite mode) build 49521"
  1887  02E7  1283               	bcf	status, 5	;RP0=0, select bank0
  1888  02E8  1303               	bcf	status, 6	;RP1=0, select bank0
  1889  02E9  01CC               	clrf	(?_lcd_send)
  1890  02EA  3020               	movlw	(020h)
  1891  02EB  118A  26CF  118A   	fcall	_lcd_send
  1892                           opt subtitle "HI-TECH Software Omniscient Code Generator (Lite mode) build 49521"
  1893                           
  1894  02EE                     l2350:	
  1895                           opt subtitle "HI-TECH Software Omniscient Code Generator (Lite mode) build 49521"
  1896                           
  1897  02EE  304F               movlw	79
  1898  02EF  1283               	bcf	status, 5	;RP0=0, select bank0
  1899  02F0  1303               	bcf	status, 6	;RP1=0, select bank0
  1900  02F1  00D1               movwf	(??_lcd_init+0)+0,f
  1901  02F2                     u2917:
  1902  02F2  0BD1               decfsz	(??_lcd_init+0)+0,f
  1903  02F3  2AF2               	goto	u2917
  1904  02F4  2AF5               	nop2	;nop
  1905                           opt subtitle "HI-TECH Software Omniscient Code Generator (Lite mode) build 49521"
  1906                           
  1907                           opt pagewidth 120
  1908                           
  1909  02F5  1283               	bcf	status, 5	;RP0=0, select bank0
  1910  02F6  1303               	bcf	status, 6	;RP1=0, select bank0
  1911  02F7  01CC               	clrf	(?_lcd_send)
  1912  02F8  303C               	movlw	(03Ch)
  1913  02F9  118A  26CF  118A   	fcall	_lcd_send
  1914                           opt subtitle "HI-TECH Software Omniscient Code Generator (Lite mode) build 49521"
  1915                           
  1916  02FC                     l2352:	
  1917                           opt subtitle "HI-TECH Software Omniscient Code Generator (Lite mode) build 49521"
  1918                           
  1919  02FC  3021               movlw	33
  1920  02FD  1283               	bcf	status, 5	;RP0=0, select bank0
  1921  02FE  1303               	bcf	status, 6	;RP1=0, select bank0
  1922  02FF  00D1               movwf	(??_lcd_init+0)+0,f
  1923  0300                     u2927:
  1924  0300  0BD1               decfsz	(??_lcd_init+0)+0,f
  1925  0301  2B00               	goto	u2927
  1926                           opt subtitle "HI-TECH Software Omniscient Code Generator (Lite mode) build 49521"
  1927                           
  1928  0302  2B04               	goto	l2354
  1929                           opt subtitle "HI-TECH Software Omniscient Code Generator (Lite mode) build 49521"
  1930                           
  1931  0303                     l184:	
  1932  0303  2B04               	goto	l2354
  1933                           opt subtitle "HI-TECH Software Omniscient Code Generator (Lite mode) build 49521"
  1934                           
  1935  0304                     l183:	
  1936                           opt subtitle "HI-TECH Software Omniscient Code Generator (Lite mode) build 49521"
  1937  0304                     l2354:	
  1938                           opt subtitle "HI-TECH Software Omniscient Code Generator (Lite mode) build 49521"
  1939                           
  1940  0304  1283               	bcf	status, 5	;RP0=0, select bank0
  1941  0305  1303               	bcf	status, 6	;RP1=0, select bank0
  1942  0306  01CC               	clrf	(?_lcd_send)
  1943  0307  3008               	movlw	(08h)
  1944  0308  118A  26CF  118A   	fcall	_lcd_send
  1945                           opt subtitle "HI-TECH Software Omniscient Code Generator (Lite mode) build 49521"
  1946                           
  1947                           opt pagewidth 120
  1948  030B  3021               movlw	33
  1949  030C  1283               	bcf	status, 5	;RP0=0, select bank0
  1950  030D  1303               	bcf	status, 6	;RP1=0, select bank0
  1951  030E  00D1               movwf	(??_lcd_init+0)+0,f
  1952  030F                     u2937:
  1953  030F  0BD1               decfsz	(??_lcd_init+0)+0,f
  1954  0310  2B0F               	goto	u2937
  1955                           opt subtitle "HI-TECH Software Omniscient Code Generator (Lite mode) build 49521"
  1956                           
  1957                           opt pagewidth 120
  1958                           
  1959  0311                     l2356:	
  1960                           opt subtitle "HI-TECH Software Omniscient Code Generator (Lite mode) build 49521"
  1961  0311  1283               	bcf	status, 5	;RP0=0, select bank0
  1962  0312  1303               	bcf	status, 6	;RP1=0, select bank0
  1963  0313  01CC               	clrf	(?_lcd_send)
  1964  0314  3001               	movlw	(01h)
  1965  0315  118A  26CF  118A   	fcall	_lcd_send
  1966                           opt subtitle "HI-TECH Software Omniscient Code Generator (Lite mode) build 49521"
  1967                           
  1968  0318                     l2358:	
  1969                           opt subtitle "HI-TECH Software Omniscient Code Generator (Lite mode) build 49521"
  1970                           
  1971  0318  3006               movlw	6
  1972  0319  1283               	bcf	status, 5	;RP0=0, select bank0
  1973  031A  1303               	bcf	status, 6	;RP1=0, select bank0
  1974  031B  00D2               movwf	((??_lcd_init+0)+0+1),f
  1975  031C  3030               	movlw	48
  1976  031D  00D1               movwf	((??_lcd_init+0)+0),f
  1977  031E                     u2947:
  1978  031E  0BD1               	decfsz	((??_lcd_init+0)+0),f
  1979  031F  2B1E               	goto	u2947
  1980  0320  0BD2               	decfsz	((??_lcd_init+0)+0+1),f
  1981  0321  2B1E               	goto	u2947
  1982  0322  0000               	nop
  1983                           opt subtitle "HI-TECH Software Omniscient Code Generator (Lite mode) build 49521"
  1984                           
  1985                           opt pagewidth 120
  1986                           
  1987  0323  1283               	bcf	status, 5	;RP0=0, select bank0
  1988  0324  1303               	bcf	status, 6	;RP1=0, select bank0
  1989  0325  01CC               	clrf	(?_lcd_send)
  1990  0326  3006               	movlw	(06h)
  1991  0327  118A  26CF  118A   	fcall	_lcd_send
  1992                           opt subtitle "HI-TECH Software Omniscient Code Generator (Lite mode) build 49521"
  1993                           
  1994  032A                     l2360:	
  1995                           opt subtitle "HI-TECH Software Omniscient Code Generator (Lite mode) build 49521"
  1996                           
  1997  032A  3021               movlw	33
  1998  032B  1283               	bcf	status, 5	;RP0=0, select bank0
  1999  032C  1303               	bcf	status, 6	;RP1=0, select bank0
  2000  032D  00D1               movwf	(??_lcd_init+0)+0,f
  2001  032E                     u2957:
  2002  032E  0BD1               decfsz	(??_lcd_init+0)+0,f
  2003  032F  2B2E               	goto	u2957
  2004                           opt subtitle "HI-TECH Software Omniscient Code Generator (Lite mode) build 49521"
  2005                           
  2006  0330  2B31               	goto	l185
  2007                           opt subtitle "HI-TECH Software Omniscient Code Generator (Lite mode) build 49521"
  2008                           
  2009  0331                     l2362:	
  2010                           opt subtitle "HI-TECH Software Omniscient Code Generator (Lite mode) build 49521"
  2011                           
  2012                           opt pagewidth 120
  2013                           
  2014  0331                     l185:	
  2015  0331  0008               	return
  2016                           opt subtitle "HI-TECH Software Omniscient Code Generator (Lite mode) build 49521"
  2017                           
  2018  0332                     	__end_of_lcd_init:
  2019                           opt subtitle "HI-TECH Software Omniscient Code Generator (Lite mode) build 49521"
  2020                           
  2021                           opt pagewidth 120
  2022                           
  2023                           	opt lm
  2024                           
  2025                           	processor	16F88
  2026                           clrc	macro
  2027                           	bcf	3,0
  2028                           	endm
  2029                           clrz	macro
  2030                           	bcf	3,2
  2031                           	endm
  2032                           setc	macro
  2033                           	bsf	3,0
  2034                           	endm
  2035                           setz	macro
  2036                           	bsf	3,2
  2037                           	endm
  2038                           skipc	macro
  2039                           	btfss	3,0
  2040                           	endm
  2041                           skipz	macro
  2042                           	btfss	3,2
  2043                           	endm
  2044                           skipnc	macro
  2045                           	btfsc	3,0
  2046                           	endm
  2047                           skipnz	macro
  2048                           	btfsc	3,2
  2049                           	endm
  2050                           indf	equ	0
  2051                           indf0	equ	0
  2052                           pc	equ	2
  2053  04F0                     __ptext883:	;psect for function _tick_init
  2054                           opt subtitle "HI-TECH Software Omniscient Code Generator (Lite mode) build 49521"
  2055                           
  2056                           opt pagewidth 120
  2057                           
  2058  0010                     	__size_of_tick_init	equ	__end_of_tick_init-_tick_init
  2059                           opt subtitle "HI-TECH Software Omniscient Code Generator (Lite mode) build 49521"
  2060  04F0                     _tick_init:	
  2061                           opt subtitle "HI-TECH Software Omniscient Code Generator (Lite mode) build 49521"
  2062                           
  2063                           opt pagewidth 120
  2064                           
  2065  04F0                     l1036:	
  2066                           opt subtitle "HI-TECH Software Omniscient Code Generator (Lite mode) build 49521"
  2067  04F0  1283               	bcf	status, 5	;RP0=0, select bank0
  2068  04F1  1303               	bcf	status, 6	;RP1=0, select bank0
  2069  04F2  0190               	clrf	(16)	;volatile
  2070                           opt subtitle "HI-TECH Software Omniscient Code Generator (Lite mode) build 49521"
  2071                           
  2072  04F3  018E               	clrf	(14)	;volatile
  2073                           opt subtitle "HI-TECH Software Omniscient Code Generator (Lite mode) build 49521"
  2074                           
  2075  04F4  018F               	clrf	(15)	;volatile
  2076                           opt subtitle "HI-TECH Software Omniscient Code Generator (Lite mode) build 49521"
  2077                           
  2078  04F5                     l1038:	
  2079                           opt subtitle "HI-TECH Software Omniscient Code Generator (Lite mode) build 49521"
  2080  04F5  100C               	bcf	(12),0	;volatile
  2081                           opt subtitle "HI-TECH Software Omniscient Code Generator (Lite mode) build 49521"
  2082                           
  2083  04F6                     l1040:	
  2084                           opt subtitle "HI-TECH Software Omniscient Code Generator (Lite mode) build 49521"
  2085  04F6  1683               	bsf	status, 5	;RP0=1, select bank1
  2086  04F7  1303               	bcf	status, 6	;RP1=0, select bank1
  2087  04F8  140C               	bsf	(140)^080h,0	;volatile
  2088                           opt subtitle "HI-TECH Software Omniscient Code Generator (Lite mode) build 49521"
  2089                           
  2090  04F9                     l1042:	
  2091                           opt subtitle "HI-TECH Software Omniscient Code Generator (Lite mode) build 49521"
  2092  04F9  178B               	bsf	(11),7	;volatile
  2093                           opt subtitle "HI-TECH Software Omniscient Code Generator (Lite mode) build 49521"
  2094                           
  2095  04FA                     l1044:	
  2096                           opt subtitle "HI-TECH Software Omniscient Code Generator (Lite mode) build 49521"
  2097  04FA  170B               	bsf	(11),6	;volatile
  2098                           opt subtitle "HI-TECH Software Omniscient Code Generator (Lite mode) build 49521"
  2099                           
  2100  04FB                     l1046:	
  2101                           opt subtitle "HI-TECH Software Omniscient Code Generator (Lite mode) build 49521"
  2102  04FB  3031               	movlw	(031h)
  2103  04FC  1283               	bcf	status, 5	;RP0=0, select bank0
  2104  04FD  1303               	bcf	status, 6	;RP1=0, select bank0
  2105  04FE  0090               	movwf	(16)	;volatile
  2106                           opt subtitle "HI-TECH Software Omniscient Code Generator (Lite mode) build 49521"
  2107                           
  2108  04FF                     l145:	
  2109  04FF  0008               	return
  2110                           opt subtitle "HI-TECH Software Omniscient Code Generator (Lite mode) build 49521"
  2111                           
  2112  0500                     	__end_of_tick_init:
  2113                           opt subtitle "HI-TECH Software Omniscient Code Generator (Lite mode) build 49521"
  2114                           
  2115                           opt pagewidth 120
  2116                           
  2117                           	opt lm
  2118                           
  2119                           	processor	16F88
  2120                           clrc	macro
  2121                           	bcf	3,0
  2122                           	endm
  2123                           clrz	macro
  2124                           	bcf	3,2
  2125                           	endm
  2126                           setc	macro
  2127                           	bsf	3,0
  2128                           	endm
  2129                           setz	macro
  2130                           	bsf	3,2
  2131                           	endm
  2132                           skipc	macro
  2133                           	btfss	3,0
  2134                           	endm
  2135                           skipz	macro
  2136                           	btfss	3,2
  2137                           	endm
  2138                           skipnc	macro
  2139                           	btfsc	3,0
  2140                           	endm
  2141                           skipnz	macro
  2142                           	btfsc	3,2
  2143                           	endm
  2144                           indf	equ	0
  2145                           indf0	equ	0
  2146                           pc	equ	2
  2147  07FA                     __ptext884:	;psect for function _dhtlib_init
  2148                           opt subtitle "HI-TECH Software Omniscient Code Generator (Lite mode) build 49521"
  2149                           
  2150                           opt pagewidth 120
  2151                           
  2152  0004                     	__size_of_dhtlib_init	equ	__end_of_dhtlib_init-_dhtlib_init
  2153                           opt subtitle "HI-TECH Software Omniscient Code Generator (Lite mode) build 49521"
  2154  07FA                     _dhtlib_init:	
  2155                           opt subtitle "HI-TECH Software Omniscient Code Generator (Lite mode) build 49521"
  2156                           
  2157                           opt pagewidth 120
  2158                           
  2159  07FA                     l1048:	
  2160                           opt subtitle "HI-TECH Software Omniscient Code Generator (Lite mode) build 49521"
  2161  07FA  1683               	bsf	status, 5	;RP0=1, select bank1
  2162  07FB  1303               	bcf	status, 6	;RP1=0, select bank1
  2163  07FC  1506               	bsf	(134)^080h,2	;volatile
  2164                           opt subtitle "HI-TECH Software Omniscient Code Generator (Lite mode) build 49521"
  2165                           
  2166  07FD                     l73:	
  2167  07FD  0008               	return
  2168                           opt subtitle "HI-TECH Software Omniscient Code Generator (Lite mode) build 49521"
  2169                           
  2170  07FE                     	__end_of_dhtlib_init:
  2171                           opt subtitle "HI-TECH Software Omniscient Code Generator (Lite mode) build 49521"
  2172                           
  2173                           opt pagewidth 120
  2174                           
  2175                           	opt lm
  2176                           
  2177                           	processor	16F88
  2178                           clrc	macro
  2179                           	bcf	3,0
  2180                           	endm
  2181                           clrz	macro
  2182                           	bcf	3,2
  2183                           	endm
  2184                           setc	macro
  2185                           	bsf	3,0
  2186                           	endm
  2187                           setz	macro
  2188                           	bsf	3,2
  2189                           	endm
  2190                           skipc	macro
  2191                           	btfss	3,0
  2192                           	endm
  2193                           skipz	macro
  2194                           	btfss	3,2
  2195                           	endm
  2196                           skipnc	macro
  2197                           	btfsc	3,0
  2198                           	endm
  2199                           skipnz	macro
  2200                           	btfsc	3,2
  2201                           	endm
  2202                           indf	equ	0
  2203                           indf0	equ	0
  2204                           pc	equ	2
  2205  0F7D                     __ptext885:	;psect for function _lcd_on
  2206                           opt subtitle "HI-TECH Software Omniscient Code Generator (Lite mode) build 49521"
  2207                           
  2208                           opt pagewidth 120
  2209                           
  2210  0010                     	__size_of_lcd_on	equ	__end_of_lcd_on-_lcd_on
  2211                           opt subtitle "HI-TECH Software Omniscient Code Generator (Lite mode) build 49521"
  2212  0F7D                     _lcd_on:	
  2213                           opt subtitle "HI-TECH Software Omniscient Code Generator (Lite mode) build 49521"
  2214                           
  2215                           opt pagewidth 120
  2216                           
  2217  0F7D                     l2364:	
  2218                           opt subtitle "HI-TECH Software Omniscient Code Generator (Lite mode) build 49521"
  2219  0F7D  1283               	bcf	status, 5	;RP0=0, select bank0
  2220  0F7E  1303               	bcf	status, 6	;RP1=0, select bank0
  2221  0F7F  1533               	bsf	(_dispctrl)+(2/8),(2)&7
  2222                           opt subtitle "HI-TECH Software Omniscient Code Generator (Lite mode) build 49521"
  2223                           
  2224  0F80                     l2366:	
  2225                           opt subtitle "HI-TECH Software Omniscient Code Generator (Lite mode) build 49521"
  2226  0F80  01CC               	clrf	(?_lcd_send)
  2227  0F81  0833               	movf	(_dispctrl),w
  2228  0F82  3808               	iorlw	08h
  2229  0F83  118A  26CF  158A   	fcall	_lcd_send
  2230                           opt subtitle "HI-TECH Software Omniscient Code Generator (Lite mode) build 49521"
  2231                           
  2232  0F86                     l2368:	
  2233                           opt subtitle "HI-TECH Software Omniscient Code Generator (Lite mode) build 49521"
  2234                           
  2235  0F86  3021               movlw	33
  2236  0F87  1283               	bcf	status, 5	;RP0=0, select bank0
  2237  0F88  1303               	bcf	status, 6	;RP1=0, select bank0
  2238  0F89  00CF               movwf	(??_lcd_on+0)+0,f
  2239  0F8A                     u2967:
  2240  0F8A  0BCF               decfsz	(??_lcd_on+0)+0,f
  2241  0F8B  2F8A               	goto	u2967
  2242                           opt subtitle "HI-TECH Software Omniscient Code Generator (Lite mode) build 49521"
  2243                           
  2244                           opt pagewidth 120
  2245                           
  2246  0F8C                     l194:	
  2247  0F8C  0008               	return
  2248                           opt subtitle "HI-TECH Software Omniscient Code Generator (Lite mode) build 49521"
  2249                           
  2250  0F8D                     	__end_of_lcd_on:
  2251                           opt subtitle "HI-TECH Software Omniscient Code Generator (Lite mode) build 49521"
  2252                           
  2253                           opt pagewidth 120
  2254                           
  2255                           	opt lm
  2256                           
  2257                           	processor	16F88
  2258                           clrc	macro
  2259                           	bcf	3,0
  2260                           	endm
  2261                           clrz	macro
  2262                           	bcf	3,2
  2263                           	endm
  2264                           setc	macro
  2265                           	bsf	3,0
  2266                           	endm
  2267                           setz	macro
  2268                           	bsf	3,2
  2269                           	endm
  2270                           skipc	macro
  2271                           	btfss	3,0
  2272                           	endm
  2273                           skipz	macro
  2274                           	btfss	3,2
  2275                           	endm
  2276                           skipnc	macro
  2277                           	btfsc	3,0
  2278                           	endm
  2279                           skipnz	macro
  2280                           	btfsc	3,2
  2281                           	endm
  2282                           indf	equ	0
  2283                           indf0	equ	0
  2284                           pc	equ	2
  2285  05AB                     __ptext886:	;psect for function _led_task
  2286                           opt subtitle "HI-TECH Software Omniscient Code Generator (Lite mode) build 49521"
  2287                           
  2288                           opt pagewidth 120
  2289                           
  2290  004D                     	__size_of_led_task	equ	__end_of_led_task-_led_task
  2291                           opt subtitle "HI-TECH Software Omniscient Code Generator (Lite mode) build 49521"
  2292  05AB                     _led_task:	
  2293                           opt subtitle "HI-TECH Software Omniscient Code Generator (Lite mode) build 49521"
  2294                           
  2295                           opt pagewidth 120
  2296                           
  2297  05AB                     l2378:	
  2298                           opt subtitle "HI-TECH Software Omniscient Code Generator (Lite mode) build 49521"
  2299                           
  2300  05AB  1283               	bcf	status, 5	;RP0=0, select bank0
  2301  05AC  1303               	bcf	status, 6	;RP1=0, select bank0
  2302  05AD  092F               	comf	(led_task@ltime),w
  2303  05AE  00CC               	movwf	(??_led_task+0)+0
  2304  05AF  0930               	comf	(led_task@ltime+1),w
  2305  05B0  00CD               	movwf	((??_led_task+0)+0+1)
  2306  05B1  0931               	comf	(led_task@ltime+2),w
  2307  05B2  00CE               	movwf	((??_led_task+0)+0+2)
  2308  05B3  0932               	comf	(led_task@ltime+3),w
  2309  05B4  00CF               	movwf	((??_led_task+0)+0+3)
  2310  05B5  0ACC               	incf	(??_led_task+0)+0,f
  2311  05B6  1903               	skipnz
  2312  05B7  0ACD               	incf	((??_led_task+0)+0+1),f
  2313  05B8  1903               	skipnz
  2314  05B9  0ACE               	incf	((??_led_task+0)+0+2),f
  2315  05BA  1903               	skipnz
  2316  05BB  0ACF               	incf	((??_led_task+0)+0+3),f
  2317  05BC  158A  27A1  118A   	fcall	_tick_get
  2318  05BF  1283               	bcf	status, 5	;RP0=0, select bank0
  2319  05C0  1303               	bcf	status, 6	;RP1=0, select bank0
  2320  05C1  0848               	movf	(0+(?_tick_get)),w
  2321  05C2  07CC               	addwf	(??_led_task+0)+0,f
  2322  05C3  0849               	movf	(1+(?_tick_get)),w
  2323  05C4  1803               	skipnc
  2324  05C5  0F49               	incfsz	(1+(?_tick_get)),w
  2325  05C6  2DC8               	goto	u2010
  2326  05C7  2DC9               	goto	u2011
  2327  05C8                     u2010:
  2328  05C8  07CD               	addwf	(??_led_task+0)+1,f
  2329  05C9                     u2011:
  2330  05C9  084A               	movf	(2+(?_tick_get)),w
  2331  05CA  1803               	skipnc
  2332  05CB  0F4A               	incfsz	(2+(?_tick_get)),w
  2333  05CC  2DCE               	goto	u2012
  2334  05CD  2DCF               	goto	u2013
  2335  05CE                     u2012:
  2336  05CE  07CE               	addwf	(??_led_task+0)+2,f
  2337  05CF                     u2013:
  2338  05CF  084B               	movf	(3+(?_tick_get)),w
  2339  05D0  1803               	skipnc
  2340  05D1  0A4B               	incf	(3+(?_tick_get)),w
  2341  05D2  07CF               	addwf	(??_led_task+0)+3,f
  2342  05D3  3000               	movlw	0
  2343  05D4  024F               	subwf	3+(??_led_task+0)+0,w
  2344  05D5  1D03               	skipz
  2345  05D6  2DE1               	goto	u2025
  2346  05D7  3001               	movlw	01h
  2347  05D8  024E               	subwf	2+(??_led_task+0)+0,w
  2348  05D9  1D03               	skipz
  2349  05DA  2DE1               	goto	u2025
  2350  05DB  30E8               	movlw	0E8h
  2351  05DC  024D               	subwf	1+(??_led_task+0)+0,w
  2352  05DD  1D03               	skipz
  2353  05DE  2DE1               	goto	u2025
  2354  05DF  3050               	movlw	050h
  2355  05E0  024C               	subwf	0+(??_led_task+0)+0,w
  2356  05E1                     u2025:
  2357  05E1  1C03               	skipc
  2358  05E2  2DE4               	goto	u2021
  2359  05E3  2DE5               	goto	u2020
  2360  05E4                     u2021:
  2361  05E4  2DF7               	goto	l55
  2362  05E5                     u2020:
  2363                           opt subtitle "HI-TECH Software Omniscient Code Generator (Lite mode) build 49521"
  2364                           
  2365  05E5                     l2380:	
  2366                           opt subtitle "HI-TECH Software Omniscient Code Generator (Lite mode) build 49521"
  2367  05E5  158A  27A1  118A   	fcall	_tick_get
  2368  05E8  1283               	bcf	status, 5	;RP0=0, select bank0
  2369  05E9  1303               	bcf	status, 6	;RP1=0, select bank0
  2370  05EA  084B               	movf	(3+(?_tick_get)),w
  2371  05EB  00B2               	movwf	(led_task@ltime+3)
  2372  05EC  084A               	movf	(2+(?_tick_get)),w
  2373  05ED  00B1               	movwf	(led_task@ltime+2)
  2374  05EE  0849               	movf	(1+(?_tick_get)),w
  2375  05EF  00B0               	movwf	(led_task@ltime+1)
  2376  05F0  0848               	movf	(0+(?_tick_get)),w
  2377  05F1  00AF               	movwf	(led_task@ltime)
  2378                           opt subtitle "HI-TECH Software Omniscient Code Generator (Lite mode) build 49521"
  2379                           
  2380                           opt pagewidth 120
  2381  05F2                     l2382:	
  2382                           opt subtitle "HI-TECH Software Omniscient Code Generator (Lite mode) build 49521"
  2383  05F2  3010               	movlw	(010h)
  2384  05F3  00CC               	movwf	(??_led_task+0)+0
  2385  05F4  084C               	movf	(??_led_task+0)+0,w
  2386  05F5  0685               	xorwf	(5),f	;volatile
  2387  05F6  2DF7               	goto	l55
  2388                           opt subtitle "HI-TECH Software Omniscient Code Generator (Lite mode) build 49521"
  2389                           
  2390  05F7                     l54:	
  2391                           opt subtitle "HI-TECH Software Omniscient Code Generator (Lite mode) build 49521"
  2392                           
  2393  05F7                     l55:	
  2394  05F7  0008               	return
  2395                           opt subtitle "HI-TECH Software Omniscient Code Generator (Lite mode) build 49521"
  2396                           
  2397  05F8                     	__end_of_led_task:
  2398                           opt subtitle "HI-TECH Software Omniscient Code Generator (Lite mode) build 49521"
  2399                           
  2400                           opt pagewidth 120
  2401                           
  2402                           	opt lm
  2403                           
  2404                           	processor	16F88
  2405                           clrc	macro
  2406                           	bcf	3,0
  2407                           	endm
  2408                           clrz	macro
  2409                           	bcf	3,2
  2410                           	endm
  2411                           setc	macro
  2412                           	bsf	3,0
  2413                           	endm
  2414                           setz	macro
  2415                           	bsf	3,2
  2416                           	endm
  2417                           skipc	macro
  2418                           	btfss	3,0
  2419                           	endm
  2420                           skipz	macro
  2421                           	btfss	3,2
  2422                           	endm
  2423                           skipnc	macro
  2424                           	btfsc	3,0
  2425                           	endm
  2426                           skipnz	macro
  2427                           	btfsc	3,2
  2428                           	endm
  2429                           indf	equ	0
  2430                           indf0	equ	0
  2431                           pc	equ	2
  2432                           pcl	equ	2
  2433                           status	equ	3
  2434                           fsr	equ	4
  2435                           fsr0	equ	4
  2436                           c	equ	1
  2437                           z	equ	0
  2438  0401                     __ptext887:	;psect for function _dht11_task
  2439                           opt subtitle "HI-TECH Software Omniscient Code Generator (Lite mode) build 49521"
  2440                           
  2441                           opt pagewidth 120
  2442                           
  2443  00A8                     	__size_of_dht11_task	equ	__end_of_dht11_task-_dht11_task
  2444                           opt subtitle "HI-TECH Software Omniscient Code Generator (Lite mode) build 49521"
  2445  0401                     _dht11_task:	
  2446                           opt subtitle "HI-TECH Software Omniscient Code Generator (Lite mode) build 49521"
  2447                           
  2448                           opt pagewidth 120
  2449                           
  2450  0401                     l2384:	
  2451                           opt subtitle "HI-TECH Software Omniscient Code Generator (Lite mode) build 49521"
  2452                           
  2453  0401  1683               	bsf	status, 5	;RP0=1, select bank1
  2454  0402  1303               	bcf	status, 6	;RP1=0, select bank1
  2455  0403  01A1               	clrf	(dht11_task@tb)^080h
  2456  0404  01A2               	clrf	(dht11_task@hb)^080h
  2457                           opt subtitle "HI-TECH Software Omniscient Code Generator (Lite mode) build 49521"
  2458                           
  2459  0405                     l2386:	
  2460                           opt subtitle "HI-TECH Software Omniscient Code Generator (Lite mode) build 49521"
  2461  0405  1283               	bcf	status, 5	;RP0=0, select bank0
  2462  0406  1303               	bcf	status, 6	;RP1=0, select bank0
  2463  0407  092B               	comf	(dht11_task@ltick),w
  2464  0408  00E6               	movwf	(??_dht11_task+0)+0
  2465  0409  092C               	comf	(dht11_task@ltick+1),w
  2466  040A  00E7               	movwf	((??_dht11_task+0)+0+1)
  2467  040B  092D               	comf	(dht11_task@ltick+2),w
  2468  040C  00E8               	movwf	((??_dht11_task+0)+0+2)
  2469  040D  092E               	comf	(dht11_task@ltick+3),w
  2470  040E  00E9               	movwf	((??_dht11_task+0)+0+3)
  2471  040F  0AE6               	incf	(??_dht11_task+0)+0,f
  2472  0410  1903               	skipnz
  2473  0411  0AE7               	incf	((??_dht11_task+0)+0+1),f
  2474  0412  1903               	skipnz
  2475  0413  0AE8               	incf	((??_dht11_task+0)+0+2),f
  2476  0414  1903               	skipnz
  2477  0415  0AE9               	incf	((??_dht11_task+0)+0+3),f
  2478  0416  158A  27A1  118A   	fcall	_tick_get
  2479  0419  1283               	bcf	status, 5	;RP0=0, select bank0
  2480  041A  1303               	bcf	status, 6	;RP1=0, select bank0
  2481  041B  0848               	movf	(0+(?_tick_get)),w
  2482  041C  07E6               	addwf	(??_dht11_task+0)+0,f
  2483  041D  0849               	movf	(1+(?_tick_get)),w
  2484  041E  1803               	skipnc
  2485  041F  0F49               	incfsz	(1+(?_tick_get)),w
  2486  0420  2C22               	goto	u2030
  2487  0421  2C23               	goto	u2031
  2488  0422                     u2030:
  2489  0422  07E7               	addwf	(??_dht11_task+0)+1,f
  2490  0423                     u2031:
  2491  0423  084A               	movf	(2+(?_tick_get)),w
  2492  0424  1803               	skipnc
  2493  0425  0F4A               	incfsz	(2+(?_tick_get)),w
  2494  0426  2C28               	goto	u2032
  2495  0427  2C29               	goto	u2033
  2496  0428                     u2032:
  2497  0428  07E8               	addwf	(??_dht11_task+0)+2,f
  2498  0429                     u2033:
  2499  0429  084B               	movf	(3+(?_tick_get)),w
  2500  042A  1803               	skipnc
  2501  042B  0A4B               	incf	(3+(?_tick_get)),w
  2502  042C  07E9               	addwf	(??_dht11_task+0)+3,f
  2503  042D  3000               	movlw	0
  2504  042E  0269               	subwf	3+(??_dht11_task+0)+0,w
  2505  042F  1D03               	skipz
  2506  0430  2C3B               	goto	u2045
  2507  0431  3013               	movlw	013h
  2508  0432  0268               	subwf	2+(??_dht11_task+0)+0,w
  2509  0433  1D03               	skipz
  2510  0434  2C3B               	goto	u2045
  2511  0435  3013               	movlw	013h
  2512  0436  0267               	subwf	1+(??_dht11_task+0)+0,w
  2513  0437  1D03               	skipz
  2514  0438  2C3B               	goto	u2045
  2515  0439  3020               	movlw	020h
  2516  043A  0266               	subwf	0+(??_dht11_task+0)+0,w
  2517  043B                     u2045:
  2518  043B  1C03               	skipc
  2519  043C  2C3E               	goto	u2041
  2520  043D  2C3F               	goto	u2040
  2521  043E                     u2041:
  2522  043E  2CA8               	goto	l49
  2523  043F                     u2040:
  2524                           opt subtitle "HI-TECH Software Omniscient Code Generator (Lite mode) build 49521"
  2525                           
  2526  043F                     l2388:	
  2527                           opt subtitle "HI-TECH Software Omniscient Code Generator (Lite mode) build 49521"
  2528  043F  158A  27A1  118A   	fcall	_tick_get
  2529  0442  1283               	bcf	status, 5	;RP0=0, select bank0
  2530  0443  1303               	bcf	status, 6	;RP1=0, select bank0
  2531  0444  084B               	movf	(3+(?_tick_get)),w
  2532  0445  00AE               	movwf	(dht11_task@ltick+3)
  2533  0446  084A               	movf	(2+(?_tick_get)),w
  2534  0447  00AD               	movwf	(dht11_task@ltick+2)
  2535  0448  0849               	movf	(1+(?_tick_get)),w
  2536  0449  00AC               	movwf	(dht11_task@ltick+1)
  2537  044A  0848               	movf	(0+(?_tick_get)),w
  2538  044B  00AB               	movwf	(dht11_task@ltick)
  2539                           opt subtitle "HI-TECH Software Omniscient Code Generator (Lite mode) build 49521"
  2540                           
  2541                           opt pagewidth 120
  2542  044C                     l2390:	
  2543                           opt subtitle "HI-TECH Software Omniscient Code Generator (Lite mode) build 49521"
  2544  044C  01CF               	clrf	(?_lcd_goto)
  2545  044D  0ACF               	incf	(?_lcd_goto),f
  2546  044E  3000               	movlw	(0)
  2547  044F  118A  27CA  118A   	fcall	_lcd_goto
  2548                           opt subtitle "HI-TECH Software Omniscient Code Generator (Lite mode) build 49521"
  2549                           
  2550  0452                     l2392:	
  2551                           opt subtitle "HI-TECH Software Omniscient Code Generator (Lite mode) build 49521"
  2552  0452  30A2               	movlw	(dht11_task@hb)&0ffh
  2553  0453  1283               	bcf	status, 5	;RP0=0, select bank0
  2554  0454  1303               	bcf	status, 6	;RP1=0, select bank0
  2555  0455  00E6               	movwf	(??_dht11_task+0)+0
  2556  0456  0866               	movf	(??_dht11_task+0)+0,w
  2557  0457  00CE               	movwf	(?_dhtlib_read11)
  2558  0458  30A1               	movlw	(dht11_task@tb)&0ffh
  2559  0459  118A  270A  118A   	fcall	_dhtlib_read11
  2560  045C  1283               	bcf	status, 5	;RP0=0, select bank0
  2561  045D  1303               	bcf	status, 6	;RP1=0, select bank0
  2562  045E  00E7               	movwf	(??_dht11_task+1)+0
  2563  045F  0867               	movf	(??_dht11_task+1)+0,w
  2564  0460  1683               	bsf	status, 5	;RP0=1, select bank1
  2565  0461  1303               	bcf	status, 6	;RP1=0, select bank1
  2566  0462  00A0               	movwf	(dht11_task@eResult)^080h
  2567                           opt subtitle "HI-TECH Software Omniscient Code Generator (Lite mode) build 49521"
  2568                           
  2569  0463                     l2394:	
  2570                           opt subtitle "HI-TECH Software Omniscient Code Generator (Lite mode) build 49521"
  2571  0463  08A0               	movf	(dht11_task@eResult)^080h,f
  2572  0464  1D03               	skipz
  2573  0465  2C67               	goto	u2051
  2574  0466  2C68               	goto	u2050
  2575  0467                     u2051:
  2576  0467  2C89               	goto	l2398
  2577  0468                     u2050:
  2578                           opt subtitle "HI-TECH Software Omniscient Code Generator (Lite mode) build 49521"
  2579                           
  2580  0468                     l2396:	
  2581                           opt subtitle "HI-TECH Software Omniscient Code Generator (Lite mode) build 49521"
  2582  0468  3026               	movlw	((STR_2-__stringbase))&0ffh
  2583  0469  1283               	bcf	status, 5	;RP0=0, select bank0
  2584  046A  1303               	bcf	status, 6	;RP1=0, select bank0
  2585  046B  00E6               	movwf	(??_dht11_task+0)+0
  2586  046C  0866               	movf	(??_dht11_task+0)+0,w
  2587  046D  00D4               	movwf	(?_sprintf)
  2588  046E  1683               	bsf	status, 5	;RP0=1, select bank1
  2589  046F  1303               	bcf	status, 6	;RP1=0, select bank1
  2590  0470  0821               	movf	(dht11_task@tb)^080h,w
  2591  0471  1283               	bcf	status, 5	;RP0=0, select bank0
  2592  0472  1303               	bcf	status, 6	;RP1=0, select bank0
  2593  0473  00E7               	movwf	(??_dht11_task+1)+0+0
  2594  0474  01E8               	clrf	(??_dht11_task+1)+0+1
  2595  0475  0867               	movf	0+(??_dht11_task+1)+0,w
  2596  0476  00D5               	movwf	0+(?_sprintf)+01h
  2597  0477  0868               	movf	1+(??_dht11_task+1)+0,w
  2598  0478  00D6               	movwf	1+(?_sprintf)+01h
  2599  0479  1683               	bsf	status, 5	;RP0=1, select bank1
  2600  047A  1303               	bcf	status, 6	;RP1=0, select bank1
  2601  047B  0822               	movf	(dht11_task@hb)^080h,w
  2602  047C  1283               	bcf	status, 5	;RP0=0, select bank0
  2603  047D  1303               	bcf	status, 6	;RP1=0, select bank0
  2604  047E  00E9               	movwf	(??_dht11_task+3)+0+0
  2605  047F  01EA               	clrf	(??_dht11_task+3)+0+1
  2606  0480  0869               	movf	0+(??_dht11_task+3)+0,w
  2607  0481  00D7               	movwf	0+(?_sprintf)+03h
  2608  0482  086A               	movf	1+(??_dht11_task+3)+0,w
  2609  0483  00D8               	movwf	1+(?_sprintf)+03h
  2610  0484  3034               	movlw	(_buf)&0ffh
  2611  0485  118A  2013  118A   	fcall	_sprintf
  2612  0488  2C9E               	goto	l48
  2613                           opt subtitle "HI-TECH Software Omniscient Code Generator (Lite mode) build 49521"
  2614                           
  2615  0489                     l47:	
  2616                           opt subtitle "HI-TECH Software Omniscient Code Generator (Lite mode) build 49521"
  2617                           
  2618  0489                     l2398:	
  2619                           opt subtitle "HI-TECH Software Omniscient Code Generator (Lite mode) build 49521"
  2620                           
  2621  0489  300F               	movlw	((STR_3-__stringbase))&0ffh
  2622  048A  1283               	bcf	status, 5	;RP0=0, select bank0
  2623  048B  1303               	bcf	status, 6	;RP1=0, select bank0
  2624  048C  00E6               	movwf	(??_dht11_task+0)+0
  2625  048D  0866               	movf	(??_dht11_task+0)+0,w
  2626  048E  00D4               	movwf	(?_sprintf)
  2627  048F  1683               	bsf	status, 5	;RP0=1, select bank1
  2628  0490  1303               	bcf	status, 6	;RP1=0, select bank1
  2629  0491  0820               	movf	(dht11_task@eResult)^080h,w
  2630  0492  1283               	bcf	status, 5	;RP0=0, select bank0
  2631  0493  1303               	bcf	status, 6	;RP1=0, select bank0
  2632  0494  00E7               	movwf	(??_dht11_task+1)+0+0
  2633  0495  01E8               	clrf	(??_dht11_task+1)+0+1
  2634  0496  0867               	movf	0+(??_dht11_task+1)+0,w
  2635  0497  00D5               	movwf	0+(?_sprintf)+01h
  2636  0498  0868               	movf	1+(??_dht11_task+1)+0,w
  2637  0499  00D6               	movwf	1+(?_sprintf)+01h
  2638  049A  3034               	movlw	(_buf)&0ffh
  2639  049B  118A  2013  118A   	fcall	_sprintf
  2640                           opt subtitle "HI-TECH Software Omniscient Code Generator (Lite mode) build 49521"
  2641  049E                     l48:	
  2642                           opt subtitle "HI-TECH Software Omniscient Code Generator (Lite mode) build 49521"
  2643                           
  2644  049E  3034               	movlw	(_buf&0ffh)
  2645  049F  1283               	bcf	status, 5	;RP0=0, select bank0
  2646  04A0  1303               	bcf	status, 6	;RP1=0, select bank0
  2647  04A1  00CF               	movwf	(?_lcd_puts)
  2648  04A2  3000               	movlw	(0x0/2)
  2649  04A3  00D0               	movwf	(?_lcd_puts+1)
  2650  04A4  118A  24A9  118A   	fcall	_lcd_puts
  2651  04A7  2CA8               	goto	l49
  2652                           opt subtitle "HI-TECH Software Omniscient Code Generator (Lite mode) build 49521"
  2653                           
  2654  04A8                     l46:	
  2655                           opt subtitle "HI-TECH Software Omniscient Code Generator (Lite mode) build 49521"
  2656                           
  2657  04A8                     l49:	
  2658  04A8  0008               	return
  2659                           opt subtitle "HI-TECH Software Omniscient Code Generator (Lite mode) build 49521"
  2660                           
  2661  04A9                     	__end_of_dht11_task:
  2662                           opt subtitle "HI-TECH Software Omniscient Code Generator (Lite mode) build 49521"
  2663                           
  2664                           opt pagewidth 120
  2665                           
  2666                           	opt lm
  2667                           
  2668                           	processor	16F88
  2669                           clrc	macro
  2670                           	bcf	3,0
  2671                           	endm
  2672                           clrz	macro
  2673                           	bcf	3,2
  2674                           	endm
  2675                           setc	macro
  2676                           	bsf	3,0
  2677                           	endm
  2678                           setz	macro
  2679                           	bsf	3,2
  2680                           	endm
  2681                           skipc	macro
  2682                           	btfss	3,0
  2683                           	endm
  2684                           skipz	macro
  2685                           	btfss	3,2
  2686                           	endm
  2687                           skipnc	macro
  2688                           	btfsc	3,0
  2689                           	endm
  2690                           skipnz	macro
  2691                           	btfsc	3,2
  2692                           	endm
  2693                           indf	equ	0
  2694                           indf0	equ	0
  2695                           pc	equ	2
  2696                           pcl	equ	2
  2697                           status	equ	3
  2698  04A9                     __ptext888:	;psect for function _lcd_puts
  2699                           opt subtitle "HI-TECH Software Omniscient Code Generator (Lite mode) build 49521"
  2700                           
  2701                           opt pagewidth 120
  2702                           
  2703  0026                     	__size_of_lcd_puts	equ	__end_of_lcd_puts-_lcd_puts
  2704                           opt subtitle "HI-TECH Software Omniscient Code Generator (Lite mode) build 49521"
  2705  04A9                     _lcd_puts:	
  2706                           opt subtitle "HI-TECH Software Omniscient Code Generator (Lite mode) build 49521"
  2707                           
  2708                           opt pagewidth 120
  2709                           
  2710  04A9                     l2370:	
  2711                           opt subtitle "HI-TECH Software Omniscient Code Generator (Lite mode) build 49521"
  2712  04A9  2CBF               	goto	l2376
  2713                           opt subtitle "HI-TECH Software Omniscient Code Generator (Lite mode) build 49521"
  2714  04AA                     l234:	
  2715                           opt subtitle "HI-TECH Software Omniscient Code Generator (Lite mode) build 49521"
  2716                           
  2717  04AA                     l2372:	
  2718                           opt subtitle "HI-TECH Software Omniscient Code Generator (Lite mode) build 49521"
  2719  04AA  1283               	bcf	status, 5	;RP0=0, select bank0
  2720  04AB  1303               	bcf	status, 6	;RP1=0, select bank0
  2721  04AC  01CC               	clrf	(?_lcd_send)
  2722  04AD  0ACC               	incf	(?_lcd_send),f
  2723  04AE  0850               	movf	(lcd_puts@string+1),w
  2724  04AF  00FF               	movwf	btemp+1
  2725  04B0  084F               	movf	(lcd_puts@string),w
  2726  04B1  0084               	movwf	fsr0
  2727  04B2  118A  2500  118A   	fcall	stringtab
  2728  04B5  118A  26CF  118A   	fcall	_lcd_send
  2729                           opt subtitle "HI-TECH Software Omniscient Code Generator (Lite mode) build 49521"
  2730  04B8                     l2374:	
  2731  04B8  3001               	movlw	01h
  2732  04B9  1283               	bcf	status, 5	;RP0=0, select bank0
  2733  04BA  1303               	bcf	status, 6	;RP1=0, select bank0
  2734  04BB  07CF               	addwf	(lcd_puts@string),f
  2735  04BC  1803               	skipnc
  2736  04BD  0AD0               	incf	(lcd_puts@string+1),f
  2737  04BE  2CBF               	goto	l2376
  2738                           opt subtitle "HI-TECH Software Omniscient Code Generator (Lite mode) build 49521"
  2739  04BF                     l233:	
  2740                           opt subtitle "HI-TECH Software Omniscient Code Generator (Lite mode) build 49521"
  2741                           
  2742  04BF                     l2376:	
  2743  04BF  1283               	bcf	status, 5	;RP0=0, select bank0
  2744  04C0  1303               	bcf	status, 6	;RP1=0, select bank0
  2745  04C1  0850               	movf	(lcd_puts@string+1),w
  2746  04C2  00FF               	movwf	btemp+1
  2747  04C3  084F               	movf	(lcd_puts@string),w
  2748  04C4  0084               	movwf	fsr0
  2749  04C5  118A  2500  118A   	fcall	stringtab
  2750  04C8  3800               	iorlw	0
  2751  04C9  1D03               	skipz
  2752  04CA  2CCC               	goto	u2001
  2753  04CB  2CCD               	goto	u2000
  2754  04CC                     u2001:
  2755  04CC  2CAA               	goto	l2372
  2756  04CD                     u2000:
  2757  04CD  2CCE               	goto	l236
  2758                           opt subtitle "HI-TECH Software Omniscient Code Generator (Lite mode) build 49521"
  2759  04CE                     l235:	
  2760                           opt subtitle "HI-TECH Software Omniscient Code Generator (Lite mode) build 49521"
  2761                           
  2762  04CE                     l236:	
  2763  04CE  0008               	return
  2764                           opt subtitle "HI-TECH Software Omniscient Code Generator (Lite mode) build 49521"
  2765                           
  2766  04CF                     	__end_of_lcd_puts:
  2767                           opt subtitle "HI-TECH Software Omniscient Code Generator (Lite mode) build 49521"
  2768                           
  2769                           opt pagewidth 120
  2770                           
  2771                           	opt lm
  2772                           
  2773                           	processor	16F88
  2774                           clrc	macro
  2775                           	bcf	3,0
  2776                           	endm
  2777                           clrz	macro
  2778                           	bcf	3,2
  2779                           	endm
  2780                           setc	macro
  2781                           	bsf	3,0
  2782                           	endm
  2783                           setz	macro
  2784                           	bsf	3,2
  2785                           	endm
  2786                           skipc	macro
  2787                           	btfss	3,0
  2788                           	endm
  2789                           skipz	macro
  2790                           	btfss	3,2
  2791                           	endm
  2792                           skipnc	macro
  2793                           	btfsc	3,0
  2794                           	endm
  2795                           skipnz	macro
  2796                           	btfsc	3,2
  2797                           	endm
  2798                           indf	equ	0
  2799                           indf0	equ	0
  2800                           pc	equ	2
  2801                           pcl	equ	2
  2802  0FA1                     __ptext889:	;psect for function _tick_get
  2803                           opt subtitle "HI-TECH Software Omniscient Code Generator (Lite mode) build 49521"
  2804                           
  2805                           opt pagewidth 120
  2806                           
  2807  0015                     	__size_of_tick_get	equ	__end_of_tick_get-_tick_get
  2808                           opt subtitle "HI-TECH Software Omniscient Code Generator (Lite mode) build 49521"
  2809  0FA1                     _tick_get:	
  2810                           opt subtitle "HI-TECH Software Omniscient Code Generator (Lite mode) build 49521"
  2811                           
  2812                           opt pagewidth 120
  2813                           
  2814  0FA1                     l2400:	
  2815                           opt subtitle "HI-TECH Software Omniscient Code Generator (Lite mode) build 49521"
  2816  0FA1  118A  24CF  158A   	fcall	_tick_read_internal
  2817                           opt subtitle "HI-TECH Software Omniscient Code Generator (Lite mode) build 49521"
  2818                           
  2819  0FA4                     l2402:	
  2820                           opt subtitle "HI-TECH Software Omniscient Code Generator (Lite mode) build 49521"
  2821  0FA4  3020               	movlw	low(_tickbuffer)
  2822  0FA5  0084               	movwf	fsr0
  2823  0FA6  1383               	bcf	status, 7	;select IRP bank0
  2824  0FA7  0800               	movf	indf,w
  2825  0FA8  1283               	bcf	status, 5	;RP0=0, select bank0
  2826  0FA9  1303               	bcf	status, 6	;RP1=0, select bank0
  2827  0FAA  00C8               	movwf	(?_tick_get)
  2828  0FAB  0A84               	incf	fsr0,f
  2829  0FAC  0800               	movf	indf,w
  2830  0FAD  00C9               	movwf	(?_tick_get+1)
  2831  0FAE  0A84               	incf	fsr0,f
  2832  0FAF  0800               	movf	indf,w
  2833  0FB0  00CA               	movwf	(?_tick_get+2)
  2834  0FB1  0A84               	incf	fsr0,f
  2835  0FB2  0800               	movf	indf,w
  2836  0FB3  00CB               	movwf	(?_tick_get+3)
  2837  0FB4  2FB5               	goto	l148
  2838                           opt subtitle "HI-TECH Software Omniscient Code Generator (Lite mode) build 49521"
  2839  0FB5                     l2404:	
  2840                           opt subtitle "HI-TECH Software Omniscient Code Generator (Lite mode) build 49521"
  2841                           
  2842  0FB5                     l148:	
  2843  0FB5  0008               	return
  2844                           opt subtitle "HI-TECH Software Omniscient Code Generator (Lite mode) build 49521"
  2845                           
  2846  0FB6                     	__end_of_tick_get:
  2847                           opt subtitle "HI-TECH Software Omniscient Code Generator (Lite mode) build 49521"
  2848                           
  2849                           opt pagewidth 120
  2850                           
  2851                           	opt lm
  2852                           
  2853                           	processor	16F88
  2854                           clrc	macro
  2855                           	bcf	3,0
  2856                           	endm
  2857                           clrz	macro
  2858                           	bcf	3,2
  2859                           	endm
  2860                           setc	macro
  2861                           	bsf	3,0
  2862                           	endm
  2863                           setz	macro
  2864                           	bsf	3,2
  2865                           	endm
  2866                           skipc	macro
  2867                           	btfss	3,0
  2868                           	endm
  2869                           skipz	macro
  2870                           	btfss	3,2
  2871                           	endm
  2872                           skipnc	macro
  2873                           	btfsc	3,0
  2874                           	endm
  2875                           skipnz	macro
  2876                           	btfsc	3,2
  2877                           	endm
  2878                           indf	equ	0
  2879                           indf0	equ	0
  2880                           pc	equ	2
  2881                           pcl	equ	2
  2882  07CA                     __ptext890:	;psect for function _lcd_goto
  2883                           opt subtitle "HI-TECH Software Omniscient Code Generator (Lite mode) build 49521"
  2884                           
  2885                           opt pagewidth 120
  2886                           
  2887  0028                     	__size_of_lcd_goto	equ	__end_of_lcd_goto-_lcd_goto
  2888                           opt subtitle "HI-TECH Software Omniscient Code Generator (Lite mode) build 49521"
  2889  07CA                     _lcd_goto:	
  2890                           opt subtitle "HI-TECH Software Omniscient Code Generator (Lite mode) build 49521"
  2891                           
  2892                           opt pagewidth 120
  2893                           
  2894  07CA  1283               	bcf	status, 5	;RP0=0, select bank0
  2895  07CB  1303               	bcf	status, 6	;RP1=0, select bank0
  2896  07CC  00D1               	movwf	(lcd_goto@col)
  2897                           opt subtitle "HI-TECH Software Omniscient Code Generator (Lite mode) build 49521"
  2898  07CD                     l2406:	
  2899                           opt subtitle "HI-TECH Software Omniscient Code Generator (Lite mode) build 49521"
  2900  07CD  086E               	movf	(_lcdrows),w
  2901  07CE  024F               	subwf	(lcd_goto@row),w
  2902  07CF  1C03               	skipc
  2903  07D0  2FD2               	goto	u2061
  2904  07D1  2FD3               	goto	u2060
  2905  07D2                     u2061:
  2906  07D2  2FD9               	goto	l2410
  2907  07D3                     u2060:
  2908                           opt subtitle "HI-TECH Software Omniscient Code Generator (Lite mode) build 49521"
  2909                           
  2910  07D3                     l2408:	
  2911                           opt subtitle "HI-TECH Software Omniscient Code Generator (Lite mode) build 49521"
  2912  07D3  086E               	movf	(_lcdrows),w
  2913  07D4  3EFF               	addlw	0FFh
  2914  07D5  00D0               	movwf	(??_lcd_goto+0)+0
  2915  07D6  0850               	movf	(??_lcd_goto+0)+0,w
  2916  07D7  00CF               	movwf	(lcd_goto@row)
  2917  07D8  2FD9               	goto	l2410
  2918                           opt subtitle "HI-TECH Software Omniscient Code Generator (Lite mode) build 49521"
  2919  07D9                     l221:	
  2920                           opt subtitle "HI-TECH Software Omniscient Code Generator (Lite mode) build 49521"
  2921                           
  2922  07D9                     l2410:	
  2923                           opt subtitle "HI-TECH Software Omniscient Code Generator (Lite mode) build 49521"
  2924  07D9  086D               	movf	(_lcdcolumns),w
  2925  07DA  0251               	subwf	(lcd_goto@col),w
  2926  07DB  1C03               	skipc
  2927  07DC  2FDE               	goto	u2071
  2928  07DD  2FDF               	goto	u2070
  2929  07DE                     u2071:
  2930  07DE  2FE5               	goto	l2414
  2931  07DF                     u2070:
  2932                           opt subtitle "HI-TECH Software Omniscient Code Generator (Lite mode) build 49521"
  2933                           
  2934  07DF                     l2412:	
  2935                           opt subtitle "HI-TECH Software Omniscient Code Generator (Lite mode) build 49521"
  2936  07DF  086D               	movf	(_lcdcolumns),w
  2937  07E0  3EFF               	addlw	0FFh
  2938  07E1  00D0               	movwf	(??_lcd_goto+0)+0
  2939  07E2  0850               	movf	(??_lcd_goto+0)+0,w
  2940  07E3  00D1               	movwf	(lcd_goto@col)
  2941  07E4  2FE5               	goto	l2414
  2942                           opt subtitle "HI-TECH Software Omniscient Code Generator (Lite mode) build 49521"
  2943  07E5                     l222:	
  2944                           opt subtitle "HI-TECH Software Omniscient Code Generator (Lite mode) build 49521"
  2945                           
  2946  07E5                     l2414:	
  2947                           opt subtitle "HI-TECH Software Omniscient Code Generator (Lite mode) build 49521"
  2948  07E5  01CC               	clrf	(?_lcd_send)
  2949  07E6  084F               	movf	(lcd_goto@row),w
  2950  07E7  3E0B               	addlw	low((_rowaddr-__stringbase))
  2951  07E8  0084               	movwf	fsr0
  2952  07E9  118A  250A  118A   	fcall	stringdir
  2953  07EC  0751               	addwf	(lcd_goto@col),w
  2954  07ED  3880               	iorlw	080h
  2955  07EE  118A  26CF  118A   	fcall	_lcd_send
  2956                           opt subtitle "HI-TECH Software Omniscient Code Generator (Lite mode) build 49521"
  2957                           
  2958  07F1                     l223:	
  2959  07F1  0008               	return
  2960                           opt subtitle "HI-TECH Software Omniscient Code Generator (Lite mode) build 49521"
  2961                           
  2962  07F2                     	__end_of_lcd_goto:
  2963                           opt subtitle "HI-TECH Software Omniscient Code Generator (Lite mode) build 49521"
  2964                           
  2965                           opt pagewidth 120
  2966                           
  2967                           	opt lm
  2968                           
  2969                           	processor	16F88
  2970                           clrc	macro
  2971                           	bcf	3,0
  2972                           	endm
  2973                           clrz	macro
  2974                           	bcf	3,2
  2975                           	endm
  2976                           setc	macro
  2977                           	bsf	3,0
  2978                           	endm
  2979                           setz	macro
  2980                           	bsf	3,2
  2981                           	endm
  2982                           skipc	macro
  2983                           	btfss	3,0
  2984                           	endm
  2985                           skipz	macro
  2986                           	btfss	3,2
  2987                           	endm
  2988                           skipnc	macro
  2989                           	btfsc	3,0
  2990                           	endm
  2991                           skipnz	macro
  2992                           	btfsc	3,2
  2993                           	endm
  2994                           indf	equ	0
  2995                           indf0	equ	0
  2996                           pc	equ	2
  2997                           pcl	equ	2
  2998                           status	equ	3
  2999                           fsr	equ	4
  3000                           fsr0	equ	4
  3001                           c	equ	1
  3002                           z	equ	0
  3003  070A                     __ptext891:	;psect for function _dhtlib_read11
  3004                           opt subtitle "HI-TECH Software Omniscient Code Generator (Lite mode) build 49521"
  3005                           
  3006                           opt pagewidth 120
  3007                           
  3008  0036                     	__size_of_dhtlib_read11	equ	__end_of_dhtlib_read11-_dhtlib_read11
  3009                           opt subtitle "HI-TECH Software Omniscient Code Generator (Lite mode) build 49521"
  3010  070A                     _dhtlib_read11:	
  3011                           opt subtitle "HI-TECH Software Omniscient Code Generator (Lite mode) build 49521"
  3012                           
  3013                           opt pagewidth 120
  3014                           
  3015  070A  1283               	bcf	status, 5	;RP0=0, select bank0
  3016  070B  1303               	bcf	status, 6	;RP1=0, select bank0
  3017  070C  00D2               	movwf	(dhtlib_read11@temp)
  3018                           opt subtitle "HI-TECH Software Omniscient Code Generator (Lite mode) build 49521"
  3019  070D                     l2416:	
  3020                           opt subtitle "HI-TECH Software Omniscient Code Generator (Lite mode) build 49521"
  3021  070D  118A  2332  118A   	fcall	_dhtlib_read
  3022  0710  1283               	bcf	status, 5	;RP0=0, select bank0
  3023  0711  1303               	bcf	status, 6	;RP1=0, select bank0
  3024  0712  00CF               	movwf	(??_dhtlib_read11+0)+0
  3025  0713  084F               	movf	(??_dhtlib_read11+0)+0,w
  3026  0714  00D4               	movwf	(dhtlib_read11@s)
  3027                           opt subtitle "HI-TECH Software Omniscient Code Generator (Lite mode) build 49521"
  3028                           
  3029  0715                     l2418:	
  3030                           opt subtitle "HI-TECH Software Omniscient Code Generator (Lite mode) build 49521"
  3031  0715  0854               	movf	(dhtlib_read11@s),w
  3032  0716  1D03               	skipz
  3033  0717  2F19               	goto	u2080
  3034  0718  2F1C               	goto	l2424
  3035  0719                     u2080:
  3036                           opt subtitle "HI-TECH Software Omniscient Code Generator (Lite mode) build 49521"
  3037                           
  3038  0719                     l2420:	
  3039                           opt subtitle "HI-TECH Software Omniscient Code Generator (Lite mode) build 49521"
  3040  0719  0854               	movf	(dhtlib_read11@s),w
  3041  071A  2F3F               	goto	l107
  3042                           opt subtitle "HI-TECH Software Omniscient Code Generator (Lite mode) build 49521"
  3043  071B                     l2422:	
  3044  071B  2F3F               	goto	l107
  3045                           opt subtitle "HI-TECH Software Omniscient Code Generator (Lite mode) build 49521"
  3046  071C                     l106:	
  3047                           opt subtitle "HI-TECH Software Omniscient Code Generator (Lite mode) build 49521"
  3048                           
  3049  071C                     l2424:	
  3050                           opt subtitle "HI-TECH Software Omniscient Code Generator (Lite mode) build 49521"
  3051  071C  0828               	movf	0+(_bits)+02h,w
  3052  071D  0727               	addwf	0+(_bits)+01h,w
  3053  071E  00CF               	movwf	(??_dhtlib_read11+0)+0
  3054  071F  0829               	movf	0+(_bits)+03h,w
  3055  0720  074F               	addwf	0+(??_dhtlib_read11+0)+0,w
  3056  0721  00D0               	movwf	(??_dhtlib_read11+1)+0
  3057  0722  0826               	movf	(_bits),w
  3058  0723  0750               	addwf	0+(??_dhtlib_read11+1)+0,w
  3059  0724  00D1               	movwf	(??_dhtlib_read11+2)+0
  3060  0725  0851               	movf	(??_dhtlib_read11+2)+0,w
  3061  0726  00D3               	movwf	(dhtlib_read11@chksum)
  3062                           opt subtitle "HI-TECH Software Omniscient Code Generator (Lite mode) build 49521"
  3063                           
  3064  0727                     l2426:	
  3065                           opt subtitle "HI-TECH Software Omniscient Code Generator (Lite mode) build 49521"
  3066  0727  082A               	movf	0+(_bits)+04h,w
  3067  0728  0653               	xorwf	(dhtlib_read11@chksum),w
  3068  0729  1903               	skipnz
  3069  072A  2F2C               	goto	u2091
  3070  072B  2F2D               	goto	u2090
  3071  072C                     u2091:
  3072  072C  2F30               	goto	l2432
  3073  072D                     u2090:
  3074                           opt subtitle "HI-TECH Software Omniscient Code Generator (Lite mode) build 49521"
  3075                           
  3076  072D                     l2428:	
  3077                           opt subtitle "HI-TECH Software Omniscient Code Generator (Lite mode) build 49521"
  3078  072D  3002               	movlw	(02h)
  3079  072E  2F3F               	goto	l107
  3080                           opt subtitle "HI-TECH Software Omniscient Code Generator (Lite mode) build 49521"
  3081  072F                     l2430:	
  3082  072F  2F3F               	goto	l107
  3083                           opt subtitle "HI-TECH Software Omniscient Code Generator (Lite mode) build 49521"
  3084  0730                     l108:	
  3085                           opt subtitle "HI-TECH Software Omniscient Code Generator (Lite mode) build 49521"
  3086                           
  3087  0730                     l2432:	
  3088                           opt subtitle "HI-TECH Software Omniscient Code Generator (Lite mode) build 49521"
  3089  0730  0826               	movf	(_bits),w
  3090  0731  00CF               	movwf	(??_dhtlib_read11+0)+0
  3091  0732  084E               	movf	(dhtlib_read11@hum),w
  3092  0733  0084               	movwf	fsr0
  3093  0734  084F               	movf	(??_dhtlib_read11+0)+0,w
  3094  0735  1383               	bcf	status, 7	;select IRP bank0
  3095  0736  0080               	movwf	indf
  3096                           opt subtitle "HI-TECH Software Omniscient Code Generator (Lite mode) build 49521"
  3097                           
  3098  0737  0828               	movf	0+(_bits)+02h,w
  3099  0738  00CF               	movwf	(??_dhtlib_read11+0)+0
  3100  0739  0852               	movf	(dhtlib_read11@temp),w
  3101  073A  0084               	movwf	fsr0
  3102  073B  084F               	movf	(??_dhtlib_read11+0)+0,w
  3103  073C  0080               	movwf	indf
  3104                           opt subtitle "HI-TECH Software Omniscient Code Generator (Lite mode) build 49521"
  3105                           
  3106  073D                     l2434:	
  3107                           opt subtitle "HI-TECH Software Omniscient Code Generator (Lite mode) build 49521"
  3108  073D  3000               	movlw	(0)
  3109  073E  2F3F               	goto	l107
  3110                           opt subtitle "HI-TECH Software Omniscient Code Generator (Lite mode) build 49521"
  3111  073F                     l2436:	
  3112                           opt subtitle "HI-TECH Software Omniscient Code Generator (Lite mode) build 49521"
  3113                           
  3114  073F                     l107:	
  3115  073F  0008               	return
  3116                           opt subtitle "HI-TECH Software Omniscient Code Generator (Lite mode) build 49521"
  3117                           
  3118  0740                     	__end_of_dhtlib_read11:
  3119                           opt subtitle "HI-TECH Software Omniscient Code Generator (Lite mode) build 49521"
  3120                           
  3121                           opt pagewidth 120
  3122                           
  3123                           	opt lm
  3124                           
  3125                           	processor	16F88
  3126                           clrc	macro
  3127                           	bcf	3,0
  3128                           	endm
  3129                           clrz	macro
  3130                           	bcf	3,2
  3131                           	endm
  3132                           setc	macro
  3133                           	bsf	3,0
  3134                           	endm
  3135                           setz	macro
  3136                           	bsf	3,2
  3137                           	endm
  3138                           skipc	macro
  3139                           	btfss	3,0
  3140                           	endm
  3141                           skipz	macro
  3142                           	btfss	3,2
  3143                           	endm
  3144                           skipnc	macro
  3145                           	btfsc	3,0
  3146                           	endm
  3147                           skipnz	macro
  3148                           	btfsc	3,2
  3149                           	endm
  3150                           indf	equ	0
  3151                           indf0	equ	0
  3152                           pc	equ	2
  3153                           pcl	equ	2
  3154                           status	equ	3
  3155                           fsr	equ	4
  3156                           fsr0	equ	4
  3157                           c	equ	1
  3158                           z	equ	0
  3159                           pclath	equ	10
  3160                           # 46 "C:\Program Files (x86)\Microchip\xc8\v1.12\include\pic16f88.h"
  3161                           INDF equ 00h ;# 
  3162                           # 52 "C:\Program Files (x86)\Microchip\xc8\v1.12\include\pic16f88.h"
  3163                           TMR0 equ 01h ;# 
  3164                           # 58 "C:\Program Files (x86)\Microchip\xc8\v1.12\include\pic16f88.h"
  3165                           PCL equ 02h ;# 
  3166                           # 64 "C:\Program Files (x86)\Microchip\xc8\v1.12\include\pic16f88.h"
  3167  0013                     __ptext892:	;psect for function _sprintf
  3168                           opt subtitle "HI-TECH Software Omniscient Code Generator (Lite mode) build 49521"
  3169                           
  3170                           opt pagewidth 120
  3171                           
  3172  0247                     	__size_of_sprintf	equ	__end_of_sprintf-_sprintf
  3173                           opt subtitle "HI-TECH Software Omniscient Code Generator (Lite mode) build 49521"
  3174  0013                     _sprintf:	
  3175                           opt subtitle "HI-TECH Software Omniscient Code Generator (Lite mode) build 49521"
  3176                           
  3177                           opt pagewidth 120
  3178                           
  3179  0013  1283               	bcf	status, 5	;RP0=0, select bank0
  3180  0014  1303               	bcf	status, 6	;RP1=0, select bank0
  3181  0015  00DF               	movwf	(sprintf@sp)
  3182                           opt subtitle "HI-TECH Software Omniscient Code Generator (Lite mode) build 49521"
  3183  0016                     l2438:	
  3184                           opt subtitle "HI-TECH Software Omniscient Code Generator (Lite mode) build 49521"
  3185                           
  3186                           opt pagewidth 120
  3187                           
  3188                           	opt lm
  3189                           
  3190                           	processor	16F88
  3191                           clrc	macro
  3192                           	bcf	3,0
  3193                           	endm
  3194                           clrz	macro
  3195                           	bcf	3,2
  3196                           	endm
  3197  0016  3055               	movlw	(?_sprintf+01h)&0ffh
  3198  0017  00D9               	movwf	(??_sprintf+0)+0
  3199  0018  0859               	movf	(??_sprintf+0)+0,w
  3200  0019  00DC               	movwf	(sprintf@ap)
  3201                           opt subtitle "HI-TECH Software Omniscient Code Generator (Lite mode) build 49521"
  3202                           
  3203  001A  2A40               	goto	l2566
  3204                           opt subtitle "HI-TECH Software Omniscient Code Generator (Lite mode) build 49521"
  3205  001B                     l290:	
  3206                           opt subtitle "HI-TECH Software Omniscient Code Generator (Lite mode) build 49521"
  3207                           
  3208  001B                     l2440:	
  3209                           opt subtitle "HI-TECH Software Omniscient Code Generator (Lite mode) build 49521"
  3210  001B  0865               	movf	(sprintf@c),w
  3211  001C  3A25               	xorlw	025h
  3212  001D  1903               	skipnz
  3213  001E  2820               	goto	u2101
  3214  001F  2821               	goto	u2100
  3215  0020                     u2101:
  3216  0020  282D               	goto	l2446
  3217  0021                     u2100:
  3218                           opt subtitle "HI-TECH Software Omniscient Code Generator (Lite mode) build 49521"
  3219                           
  3220  0021                     l2442:	
  3221                           opt subtitle "HI-TECH Software Omniscient Code Generator (Lite mode) build 49521"
  3222                           
  3223  0021  0865               	movf	(sprintf@c),w
  3224  0022  00D9               	movwf	(??_sprintf+0)+0
  3225  0023  085F               	movf	(sprintf@sp),w
  3226  0024  0084               	movwf	fsr0
  3227  0025  0859               	movf	(??_sprintf+0)+0,w
  3228  0026  1383               	bcf	status, 7	;select IRP bank0
  3229  0027  0080               	movwf	indf
  3230                           opt subtitle "HI-TECH Software Omniscient Code Generator (Lite mode) build 49521"
  3231  0028                     l2444:	
  3232  0028  3001               	movlw	(01h)
  3233  0029  00D9               	movwf	(??_sprintf+0)+0
  3234  002A  0859               	movf	(??_sprintf+0)+0,w
  3235  002B  07DF               	addwf	(sprintf@sp),f
  3236                           opt subtitle "HI-TECH Software Omniscient Code Generator (Lite mode) build 49521"
  3237                           
  3238  002C  2A40               	goto	l2566
  3239                           opt subtitle "HI-TECH Software Omniscient Code Generator (Lite mode) build 49521"
  3240                           
  3241  002D                     l291:	
  3242                           opt subtitle "HI-TECH Software Omniscient Code Generator (Lite mode) build 49521"
  3243                           
  3244  002D                     l2446:	
  3245                           opt subtitle "HI-TECH Software Omniscient Code Generator (Lite mode) build 49521"
  3246                           
  3247  002D  01E0               	clrf	(sprintf@width)
  3248  002E  01E1               	clrf	(sprintf@width+1)
  3249                           opt subtitle "HI-TECH Software Omniscient Code Generator (Lite mode) build 49521"
  3250                           
  3251  002F                     l2448:	
  3252                           opt subtitle "HI-TECH Software Omniscient Code Generator (Lite mode) build 49521"
  3253  002F  01DE               	clrf	(sprintf@flag)
  3254  0030  2839               	goto	l2454
  3255                           opt subtitle "HI-TECH Software Omniscient Code Generator (Lite mode) build 49521"
  3256                           
  3257                           opt pagewidth 120
  3258  0031                     l292:	
  3259                           opt subtitle "HI-TECH Software Omniscient Code Generator (Lite mode) build 49521"
  3260                           
  3261  0031  2839               	goto	l2454
  3262                           opt subtitle "HI-TECH Software Omniscient Code Generator (Lite mode) build 49521"
  3263                           
  3264                           opt pagewidth 120
  3265  0032                     l294:	
  3266                           opt subtitle "HI-TECH Software Omniscient Code Generator (Lite mode) build 49521"
  3267                           
  3268  0032  155E               	bsf	(sprintf@flag)+(2/8),(2)&7
  3269                           opt subtitle "HI-TECH Software Omniscient Code Generator (Lite mode) build 49521"
  3270                           
  3271  0033                     l2450:	
  3272                           opt subtitle "HI-TECH Software Omniscient Code Generator (Lite mode) build 49521"
  3273  0033  3001               	movlw	(01h)
  3274  0034  00D9               	movwf	(??_sprintf+0)+0
  3275  0035  0859               	movf	(??_sprintf+0)+0,w
  3276  0036  07D4               	addwf	(sprintf@f),f
  3277                           opt subtitle "HI-TECH Software Omniscient Code Generator (Lite mode) build 49521"
  3278                           
  3279  0037  2839               	goto	l2454
  3280                           opt subtitle "HI-TECH Software Omniscient Code Generator (Lite mode) build 49521"
  3281                           
  3282  0038                     l2452:	
  3283                           opt subtitle "HI-TECH Software Omniscient Code Generator (Lite mode) build 49521"
  3284  0038  2844               	goto	l2456
  3285                           opt subtitle "HI-TECH Software Omniscient Code Generator (Lite mode) build 49521"
  3286                           
  3287  0039                     l293:	
  3288                           opt subtitle "HI-TECH Software Omniscient Code Generator (Lite mode) build 49521"
  3289  0039                     l2454:	
  3290  0039  0854               	movf	(sprintf@f),w
  3291  003A  0084               	movwf	fsr0
  3292  003B  118A  250A  118A   	fcall	stringdir
  3293                           opt subtitle "HI-TECH Software Omniscient Code Generator (Lite mode) build 49521"
  3294                           
  3295                           opt pagewidth 120
  3296                           
  3297                           	opt lm
  3298                           
  3299                           	processor	16F88
  3300                           clrc	macro
  3301                           	bcf	3,0
  3302                           	endm
  3303  003E  3A30               	xorlw	48^0	; case 48
  3304  003F  1903               	skipnz
  3305  0040  2832               	goto	l294
  3306  0041  2844               	goto	l2456
  3307                           opt subtitle "HI-TECH Software Omniscient Code Generator (Lite mode) build 49521"
  3308                           
  3309                           opt pagewidth 120
  3310                           
  3311  0042                     l296:	
  3312                           opt subtitle "HI-TECH Software Omniscient Code Generator (Lite mode) build 49521"
  3313                           
  3314  0042  2844               	goto	l2456
  3315                           opt subtitle "HI-TECH Software Omniscient Code Generator (Lite mode) build 49521"
  3316                           
  3317  0043                     l295:	
  3318                           opt subtitle "HI-TECH Software Omniscient Code Generator (Lite mode) build 49521"
  3319  0043  2839               	goto	l2454
  3320                           opt subtitle "HI-TECH Software Omniscient Code Generator (Lite mode) build 49521"
  3321  0044                     l297:	
  3322                           opt subtitle "HI-TECH Software Omniscient Code Generator (Lite mode) build 49521"
  3323                           
  3324  0044                     l2456:	
  3325                           opt subtitle "HI-TECH Software Omniscient Code Generator (Lite mode) build 49521"
  3326  0044  0854               	movf	(sprintf@f),w
  3327  0045  0084               	movwf	fsr0
  3328  0046  118A  250A  118A   	fcall	stringdir
  3329  0049  158A  278D  118A   	fcall	_isdigit
  3330  004C  1C03               	btfss	status,0
  3331  004D  284F               	goto	u2111
  3332  004E  2850               	goto	u2110
  3333  004F                     u2111:
  3334  004F  28F6               	goto	l2492
  3335  0050                     u2110:
  3336                           opt subtitle "HI-TECH Software Omniscient Code Generator (Lite mode) build 49521"
  3337                           
  3338  0050                     l2458:	
  3339                           opt subtitle "HI-TECH Software Omniscient Code Generator (Lite mode) build 49521"
  3340  0050  1283               	bcf	status, 5	;RP0=0, select bank0
  3341  0051  1303               	bcf	status, 6	;RP1=0, select bank0
  3342  0052  01E0               	clrf	(sprintf@width)
  3343  0053  01E1               	clrf	(sprintf@width+1)
  3344  0054  2855               	goto	l2460
  3345                           opt subtitle "HI-TECH Software Omniscient Code Generator (Lite mode) build 49521"
  3346                           
  3347                           opt pagewidth 120
  3348  0055                     l299:	
  3349                           opt subtitle "HI-TECH Software Omniscient Code Generator (Lite mode) build 49521"
  3350                           
  3351  0055                     l2460:	
  3352                           opt subtitle "HI-TECH Software Omniscient Code Generator (Lite mode) build 49521"
  3353  0055  300A               	movlw	low(0Ah)
  3354  0056  1283               	bcf	status, 5	;RP0=0, select bank0
  3355  0057  1303               	bcf	status, 6	;RP1=0, select bank0
  3356  0058  00C8               	movwf	(?___wmul)
  3357  0059  3000               	movlw	high(0Ah)
  3358  005A  00C9               	movwf	((?___wmul))+1
  3359  005B  0861               	movf	(sprintf@width+1),w
  3360  005C  01CB               	clrf	1+(?___wmul)+02h
  3361  005D  07CB               	addwf	1+(?___wmul)+02h
  3362  005E  0860               	movf	(sprintf@width),w
  3363  005F  01CA               	clrf	0+(?___wmul)+02h
  3364  0060  07CA               	addwf	0+(?___wmul)+02h
  3365                           opt subtitle "HI-TECH Software Omniscient Code Generator (Lite mode) build 49521"
  3366  0061  118A  2773  118A   	fcall	___wmul
  3367  0064  1283               	bcf	status, 5	;RP0=0, select bank0
  3368  0065  1303               	bcf	status, 6	;RP1=0, select bank0
  3369  0066  0849               	movf	(1+(?___wmul)),w
  3370  0067  01E1               	clrf	(sprintf@width+1)
  3371  0068  07E1               	addwf	(sprintf@width+1)
  3372  0069  0848               	movf	(0+(?___wmul)),w
  3373  006A  01E0               	clrf	(sprintf@width)
  3374  006B  07E0               	addwf	(sprintf@width)
  3375                           opt subtitle "HI-TECH Software Omniscient Code Generator (Lite mode) build 49521"
  3376                           
  3377                           opt pagewidth 120
  3378  006C                     l2462:	
  3379                           opt subtitle "HI-TECH Software Omniscient Code Generator (Lite mode) build 49521"
  3380  006C  0854               	movf	(sprintf@f),w
  3381  006D  0084               	movwf	fsr0
  3382  006E  118A  250A  118A   	fcall	stringdir
  3383  0071  3ED0               	addlw	low(-48)
  3384  0072  00D9               	movwf	(??_sprintf+0)+0
  3385  0073  30FF               	movlw	high(-48)
  3386  0074  1803               	skipnc
  3387  0075  3000               	movlw	(high(-48)+1)&0ffh
  3388  0076  00DA               	movwf	((??_sprintf+0)+0)+1
  3389  0077  0859               	movf	0+(??_sprintf+0)+0,w
  3390  0078  07E0               	addwf	(sprintf@width),f
  3391  0079  1803               	skipnc
  3392  007A  0AE1               	incf	(sprintf@width+1),f
  3393  007B  085A               	movf	1+(??_sprintf+0)+0,w
  3394  007C  07E1               	addwf	(sprintf@width+1),f
  3395                           opt subtitle "HI-TECH Software Omniscient Code Generator (Lite mode) build 49521"
  3396  007D                     l2464:	
  3397  007D  3001               	movlw	(01h)
  3398  007E  00D9               	movwf	(??_sprintf+0)+0
  3399  007F  0859               	movf	(??_sprintf+0)+0,w
  3400  0080  07D4               	addwf	(sprintf@f),f
  3401                           opt subtitle "HI-TECH Software Omniscient Code Generator (Lite mode) build 49521"
  3402                           
  3403  0081                     l2466:	
  3404                           opt subtitle "HI-TECH Software Omniscient Code Generator (Lite mode) build 49521"
  3405  0081  0854               	movf	(sprintf@f),w
  3406  0082  0084               	movwf	fsr0
  3407  0083  118A  250A  118A   	fcall	stringdir
  3408  0086  158A  278D  118A   	fcall	_isdigit
  3409  0089  1803               	btfsc	status,0
  3410  008A  288C               	goto	u2121
  3411  008B  288D               	goto	u2120
  3412  008C                     u2121:
  3413  008C  2855               	goto	l2460
  3414  008D                     u2120:
  3415  008D  28F6               	goto	l2492
  3416                           opt subtitle "HI-TECH Software Omniscient Code Generator (Lite mode) build 49521"
  3417  008E                     l300:	
  3418  008E  28F6               	goto	l2492
  3419                           opt subtitle "HI-TECH Software Omniscient Code Generator (Lite mode) build 49521"
  3420                           
  3421  008F                     l298:	
  3422                           opt subtitle "HI-TECH Software Omniscient Code Generator (Lite mode) build 49521"
  3423                           
  3424                           opt pagewidth 120
  3425  008F  28F6               	goto	l2492
  3426                           opt subtitle "HI-TECH Software Omniscient Code Generator (Lite mode) build 49521"
  3427                           
  3428                           opt pagewidth 120
  3429  0090                     l302:	
  3430                           opt subtitle "HI-TECH Software Omniscient Code Generator (Lite mode) build 49521"
  3431                           
  3432  0090  2A52               	goto	l2568
  3433                           opt subtitle "HI-TECH Software Omniscient Code Generator (Lite mode) build 49521"
  3434                           
  3435                           opt pagewidth 120
  3436  0091                     l304:	
  3437  0091  290B               	goto	l2494
  3438                           opt subtitle "HI-TECH Software Omniscient Code Generator (Lite mode) build 49521"
  3439                           
  3440  0092                     l305:	
  3441                           opt subtitle "HI-TECH Software Omniscient Code Generator (Lite mode) build 49521"
  3442                           
  3443                           opt pagewidth 120
  3444  0092  290B               	goto	l2494
  3445                           opt subtitle "HI-TECH Software Omniscient Code Generator (Lite mode) build 49521"
  3446                           
  3447                           opt pagewidth 120
  3448  0093                     l307:	
  3449                           opt subtitle "HI-TECH Software Omniscient Code Generator (Lite mode) build 49521"
  3450                           
  3451  0093                     l2468:	
  3452                           opt subtitle "HI-TECH Software Omniscient Code Generator (Lite mode) build 49521"
  3453  0093  1283               	bcf	status, 5	;RP0=0, select bank0
  3454  0094  1303               	bcf	status, 6	;RP1=0, select bank0
  3455  0095  0861               	movf	(sprintf@width+1),w
  3456  0096  0264               	subwf	1+(sprintf@_val)+01h,w
  3457  0097  1D03               	skipz
  3458  0098  289B               	goto	u2135
  3459  0099  0860               	movf	(sprintf@width),w
  3460  009A  0263               	subwf	0+(sprintf@_val)+01h,w
  3461  009B                     u2135:
  3462  009B  1803               	skipnc
  3463  009C  289E               	goto	u2131
  3464  009D  289F               	goto	u2130
  3465  009E                     u2131:
  3466  009E  28A6               	goto	l2472
  3467  009F                     u2130:
  3468                           opt subtitle "HI-TECH Software Omniscient Code Generator (Lite mode) build 49521"
  3469                           
  3470  009F                     l2470:	
  3471                           opt subtitle "HI-TECH Software Omniscient Code Generator (Lite mode) build 49521"
  3472  009F  0863               	movf	0+(sprintf@_val)+01h,w
  3473  00A0  02E0               	subwf	(sprintf@width),f
  3474  00A1  0864               	movf	1+(sprintf@_val)+01h,w
  3475  00A2  1C03               	skipc
  3476  00A3  03E1               	decf	(sprintf@width+1),f
  3477  00A4  02E1               	subwf	(sprintf@width+1),f
  3478  00A5  28B6               	goto	l2478
  3479                           opt subtitle "HI-TECH Software Omniscient Code Generator (Lite mode) build 49521"
  3480                           
  3481  00A6                     l308:	
  3482                           opt subtitle "HI-TECH Software Omniscient Code Generator (Lite mode) build 49521"
  3483                           
  3484  00A6                     l2472:	
  3485                           opt subtitle "HI-TECH Software Omniscient Code Generator (Lite mode) build 49521"
  3486                           
  3487  00A6  01E0               	clrf	(sprintf@width)
  3488  00A7  01E1               	clrf	(sprintf@width+1)
  3489  00A8  28B6               	goto	l2478
  3490                           opt subtitle "HI-TECH Software Omniscient Code Generator (Lite mode) build 49521"
  3491  00A9                     l309:	
  3492                           opt subtitle "HI-TECH Software Omniscient Code Generator (Lite mode) build 49521"
  3493                           
  3494  00A9  28B6               	goto	l2478
  3495                           opt subtitle "HI-TECH Software Omniscient Code Generator (Lite mode) build 49521"
  3496  00AA                     l311:	
  3497                           opt subtitle "HI-TECH Software Omniscient Code Generator (Lite mode) build 49521"
  3498                           
  3499  00AA                     l2474:	
  3500                           opt subtitle "HI-TECH Software Omniscient Code Generator (Lite mode) build 49521"
  3501  00AA  3020               	movlw	(020h)
  3502  00AB  00D9               	movwf	(??_sprintf+0)+0
  3503  00AC  085F               	movf	(sprintf@sp),w
  3504  00AD  0084               	movwf	fsr0
  3505  00AE  0859               	movf	(??_sprintf+0)+0,w
  3506  00AF  1383               	bcf	status, 7	;select IRP bank0
  3507  00B0  0080               	movwf	indf
  3508                           opt subtitle "HI-TECH Software Omniscient Code Generator (Lite mode) build 49521"
  3509  00B1                     l2476:	
  3510  00B1  3001               	movlw	(01h)
  3511  00B2  00D9               	movwf	(??_sprintf+0)+0
  3512  00B3  0859               	movf	(??_sprintf+0)+0,w
  3513  00B4  07DF               	addwf	(sprintf@sp),f
  3514  00B5  28B6               	goto	l2478
  3515                           opt subtitle "HI-TECH Software Omniscient Code Generator (Lite mode) build 49521"
  3516  00B6                     l310:	
  3517                           opt subtitle "HI-TECH Software Omniscient Code Generator (Lite mode) build 49521"
  3518                           
  3519  00B6                     l2478:	
  3520  00B6  30FF               	movlw	low(-1)
  3521  00B7  07E0               	addwf	(sprintf@width),f
  3522  00B8  1803               	skipnc
  3523  00B9  0AE1               	incf	(sprintf@width+1),f
  3524  00BA  30FF               	movlw	high(-1)
  3525  00BB  07E1               	addwf	(sprintf@width+1),f
  3526  00BC  30FF               	movlw	high(-1)
  3527  00BD  0661               	xorwf	((sprintf@width+1)),w
  3528  00BE  1D03               	skipz
  3529  00BF  28C2               	goto	u2145
  3530  00C0  30FF               	movlw	low(-1)
  3531  00C1  0660               	xorwf	((sprintf@width)),w
  3532  00C2                     u2145:
  3533                           opt subtitle "HI-TECH Software Omniscient Code Generator (Lite mode) build 49521"
  3534  00C2  1D03               	skipz
  3535  00C3  28C5               	goto	u2141
  3536  00C4  28C6               	goto	u2140
  3537  00C5                     u2141:
  3538  00C5  28AA               	goto	l2474
  3539  00C6                     u2140:
  3540  00C6  28DA               	goto	l2486
  3541                           opt subtitle "HI-TECH Software Omniscient Code Generator (Lite mode) build 49521"
  3542  00C7                     l312:	
  3543                           opt subtitle "HI-TECH Software Omniscient Code Generator (Lite mode) build 49521"
  3544                           
  3545  00C7  28DA               	goto	l2486
  3546                           opt subtitle "HI-TECH Software Omniscient Code Generator (Lite mode) build 49521"
  3547  00C8                     l314:	
  3548                           opt subtitle "HI-TECH Software Omniscient Code Generator (Lite mode) build 49521"
  3549                           
  3550  00C8                     l2480:	
  3551                           opt subtitle "HI-TECH Software Omniscient Code Generator (Lite mode) build 49521"
  3552  00C8  0862               	movf	(sprintf@_val),w
  3553  00C9  0084               	movwf	fsr0
  3554  00CA  1383               	bcf	status, 7	;select IRP bank0
  3555  00CB  0800               	movf	indf,w
  3556  00CC  00D9               	movwf	(??_sprintf+0)+0
  3557  00CD  085F               	movf	(sprintf@sp),w
  3558  00CE  0084               	movwf	fsr0
  3559  00CF  0859               	movf	(??_sprintf+0)+0,w
  3560  00D0  0080               	movwf	indf
  3561                           opt subtitle "HI-TECH Software Omniscient Code Generator (Lite mode) build 49521"
  3562  00D1                     l2482:	
  3563  00D1  3001               	movlw	(01h)
  3564  00D2  00D9               	movwf	(??_sprintf+0)+0
  3565  00D3  0859               	movf	(??_sprintf+0)+0,w
  3566  00D4  07E2               	addwf	(sprintf@_val),f
  3567                           opt subtitle "HI-TECH Software Omniscient Code Generator (Lite mode) build 49521"
  3568  00D5                     l2484:	
  3569  00D5  3001               	movlw	(01h)
  3570  00D6  00D9               	movwf	(??_sprintf+0)+0
  3571  00D7  0859               	movf	(??_sprintf+0)+0,w
  3572  00D8  07DF               	addwf	(sprintf@sp),f
  3573  00D9  28DA               	goto	l2486
  3574                           opt subtitle "HI-TECH Software Omniscient Code Generator (Lite mode) build 49521"
  3575  00DA                     l313:	
  3576                           opt subtitle "HI-TECH Software Omniscient Code Generator (Lite mode) build 49521"
  3577                           
  3578  00DA                     l2486:	
  3579  00DA  3001               	movlw	low(01h)
  3580  00DB  02E3               	subwf	0+(sprintf@_val)+01h,f
  3581  00DC  3000               	movlw	high(01h)
  3582  00DD  1C03               	skipc
  3583  00DE  03E4               	decf	1+(sprintf@_val)+01h,f
  3584  00DF  02E4               	subwf	1+(sprintf@_val)+01h,f
  3585  00E0  30FF               	movlw	high(0FFFFh)
  3586  00E1  0664               	xorwf	(1+(sprintf@_val)+01h),w
  3587  00E2  1D03               	skipz
  3588  00E3  28E6               	goto	u2155
  3589  00E4  30FF               	movlw	low(0FFFFh)
  3590  00E5  0663               	xorwf	(0+(sprintf@_val)+01h),w
  3591  00E6                     u2155:
  3592                           opt subtitle "HI-TECH Software Omniscient Code Generator (Lite mode) build 49521"
  3593  00E6  1D03               	skipz
  3594  00E7  28E9               	goto	u2151
  3595  00E8  28EA               	goto	u2150
  3596  00E9                     u2151:
  3597  00E9  28C8               	goto	l2480
  3598  00EA                     u2150:
  3599  00EA  2A40               	goto	l2566
  3600                           opt subtitle "HI-TECH Software Omniscient Code Generator (Lite mode) build 49521"
  3601  00EB                     l315:	
  3602                           opt subtitle "HI-TECH Software Omniscient Code Generator (Lite mode) build 49521"
  3603                           
  3604  00EB  2A40               	goto	l2566
  3605                           opt subtitle "HI-TECH Software Omniscient Code Generator (Lite mode) build 49521"
  3606                           
  3607                           opt pagewidth 120
  3608  00EC                     l316:	
  3609                           opt subtitle "HI-TECH Software Omniscient Code Generator (Lite mode) build 49521"
  3610                           
  3611  00EC                     l2488:	
  3612                           opt subtitle "HI-TECH Software Omniscient Code Generator (Lite mode) build 49521"
  3613  00EC  3065               	movlw	(sprintf@c)&0ffh
  3614  00ED  00D9               	movwf	(??_sprintf+0)+0
  3615  00EE  0859               	movf	(??_sprintf+0)+0,w
  3616  00EF  00E2               	movwf	(sprintf@_val)
  3617                           opt subtitle "HI-TECH Software Omniscient Code Generator (Lite mode) build 49521"
  3618                           
  3619  00F0  3001               	movlw	low(01h)
  3620  00F1  00E3               	movwf	0+(sprintf@_val)+01h
  3621  00F2  3000               	movlw	high(01h)
  3622  00F3  00E4               	movwf	(0+(sprintf@_val)+01h)+1
  3623                           opt subtitle "HI-TECH Software Omniscient Code Generator (Lite mode) build 49521"
  3624                           
  3625  00F4  2893               	goto	l2468
  3626                           opt subtitle "HI-TECH Software Omniscient Code Generator (Lite mode) build 49521"
  3627                           
  3628  00F5                     l2490:	
  3629                           opt subtitle "HI-TECH Software Omniscient Code Generator (Lite mode) build 49521"
  3630  00F5  290B               	goto	l2494
  3631                           opt subtitle "HI-TECH Software Omniscient Code Generator (Lite mode) build 49521"
  3632                           
  3633  00F6                     l301:	
  3634                           opt subtitle "HI-TECH Software Omniscient Code Generator (Lite mode) build 49521"
  3635  00F6                     l2492:	
  3636  00F6  3001               	movlw	01h
  3637  00F7  1283               	bcf	status, 5	;RP0=0, select bank0
  3638  00F8  1303               	bcf	status, 6	;RP1=0, select bank0
  3639  00F9  07D4               	addwf	(sprintf@f),f
  3640  00FA  30FF               	movlw	-01h
  3641  00FB  0754               	addwf	(sprintf@f),w
  3642  00FC  0084               	movwf	fsr0
  3643  00FD  118A  250A  118A   	fcall	stringdir
  3644  0100  00E5               	movwf	(sprintf@c)
  3645                           opt subtitle "HI-TECH Software Omniscient Code Generator (Lite mode) build 49521"
  3646                           
  3647                           opt pagewidth 120
  3648                           
  3649                           	opt lm
  3650                           
  3651                           	processor	16F88
  3652                           clrc	macro
  3653                           	bcf	3,0
  3654                           	endm
  3655                           clrz	macro
  3656                           	bcf	3,2
  3657                           	endm
  3658  0101  3A00               	xorlw	0^0	; case 0
  3659  0102  1903               	skipnz
  3660  0103  2A52               	goto	l2568
  3661  0104  3A64               	xorlw	100^0	; case 100
  3662  0105  1903               	skipnz
  3663  0106  290B               	goto	l2494
  3664  0107  3A0D               	xorlw	105^100	; case 105
  3665  0108  1903               	skipnz
  3666  0109  290B               	goto	l2494
  3667  010A  28EC               	goto	l2488
  3668                           opt subtitle "HI-TECH Software Omniscient Code Generator (Lite mode) build 49521"
  3669                           
  3670                           opt pagewidth 120
  3671                           
  3672  010B                     l306:	
  3673                           opt subtitle "HI-TECH Software Omniscient Code Generator (Lite mode) build 49521"
  3674                           
  3675  010B                     l2494:	
  3676                           opt subtitle "HI-TECH Software Omniscient Code Generator (Lite mode) build 49521"
  3677                           
  3678  010B  1283               	bcf	status, 5	;RP0=0, select bank0
  3679  010C  1303               	bcf	status, 6	;RP1=0, select bank0
  3680  010D  085C               	movf	(sprintf@ap),w
  3681  010E  0084               	movwf	fsr0
  3682  010F  1383               	bcf	status, 7	;select IRP bank0
  3683  0110  0800               	movf	indf,w
  3684  0111  00E2               	movwf	(sprintf@_val)
  3685  0112  0A84               	incf	fsr0,f
  3686  0113  0800               	movf	indf,w
  3687  0114  00E3               	movwf	(sprintf@_val+1)
  3688                           opt subtitle "HI-TECH Software Omniscient Code Generator (Lite mode) build 49521"
  3689  0115                     l2496:	
  3690  0115  3002               	movlw	(02h)
  3691  0116  00D9               	movwf	(??_sprintf+0)+0
  3692  0117  0859               	movf	(??_sprintf+0)+0,w
  3693  0118  07DC               	addwf	(sprintf@ap),f
  3694                           opt subtitle "HI-TECH Software Omniscient Code Generator (Lite mode) build 49521"
  3695                           
  3696  0119                     l2498:	
  3697                           opt subtitle "HI-TECH Software Omniscient Code Generator (Lite mode) build 49521"
  3698  0119  1FE3               	btfss	(sprintf@_val+1),7
  3699  011A  291C               	goto	u2161
  3700  011B  291D               	goto	u2160
  3701  011C                     u2161:
  3702  011C  2927               	goto	l2504
  3703  011D                     u2160:
  3704                           opt subtitle "HI-TECH Software Omniscient Code Generator (Lite mode) build 49521"
  3705                           
  3706  011D                     l2500:	
  3707                           opt subtitle "HI-TECH Software Omniscient Code Generator (Lite mode) build 49521"
  3708  011D  3003               	movlw	(03h)
  3709  011E  00D9               	movwf	(??_sprintf+0)+0
  3710  011F  0859               	movf	(??_sprintf+0)+0,w
  3711  0120  04DE               	iorwf	(sprintf@flag),f
  3712                           opt subtitle "HI-TECH Software Omniscient Code Generator (Lite mode) build 49521"
  3713                           
  3714  0121                     l2502:	
  3715                           opt subtitle "HI-TECH Software Omniscient Code Generator (Lite mode) build 49521"
  3716  0121  09E2               	comf	(sprintf@_val),f
  3717  0122  09E3               	comf	(sprintf@_val+1),f
  3718  0123  0AE2               	incf	(sprintf@_val),f
  3719  0124  1903               	skipnz
  3720  0125  0AE3               	incf	(sprintf@_val+1),f
  3721  0126  2927               	goto	l2504
  3722                           opt subtitle "HI-TECH Software Omniscient Code Generator (Lite mode) build 49521"
  3723                           
  3724  0127                     l317:	
  3725                           opt subtitle "HI-TECH Software Omniscient Code Generator (Lite mode) build 49521"
  3726                           
  3727  0127                     l2504:	
  3728                           opt subtitle "HI-TECH Software Omniscient Code Generator (Lite mode) build 49521"
  3729                           
  3730                           opt pagewidth 120
  3731  0127  01E5               	clrf	(sprintf@c)
  3732  0128  0AE5               	incf	(sprintf@c),f
  3733  0129  0865               	movf	(sprintf@c),w
  3734  012A  3A05               	xorlw	05h
  3735  012B  1D03               	skipz
  3736  012C  292E               	goto	u2171
  3737  012D  292F               	goto	u2170
  3738  012E                     u2171:
  3739  012E  2931               	goto	l2508
  3740  012F                     u2170:
  3741  012F  2955               	goto	l2516
  3742                           opt subtitle "HI-TECH Software Omniscient Code Generator (Lite mode) build 49521"
  3743  0130                     l2506:	
  3744  0130  2955               	goto	l2516
  3745                           opt subtitle "HI-TECH Software Omniscient Code Generator (Lite mode) build 49521"
  3746                           
  3747  0131                     l318:	
  3748                           opt subtitle "HI-TECH Software Omniscient Code Generator (Lite mode) build 49521"
  3749  0131                     l2508:	
  3750                           opt subtitle "HI-TECH Software Omniscient Code Generator (Lite mode) build 49521"
  3751  0131  0865               	movf	(sprintf@c),w
  3752  0132  00D9               	movwf	(??_sprintf+0)+0
  3753  0133  0759               	addwf	(??_sprintf+0)+0,w
  3754  0134  3E01               	addlw	low((_dpowers-__stringbase))
  3755  0135  0084               	movwf	fsr0
  3756  0136  118A  250A  118A   	fcall	stringdir
  3757  0139  00DA               	movwf	(??_sprintf+1)+0
  3758  013A  118A  250A  118A   	fcall	stringdir
  3759  013D  00DB               	movwf	(??_sprintf+1)+0+1
  3760  013E  085B               	movf	1+(??_sprintf+1)+0,w
  3761  013F  0263               	subwf	(sprintf@_val+1),w
  3762  0140  1D03               	skipz
  3763  0141  2944               	goto	u2185
  3764  0142  085A               	movf	0+(??_sprintf+1)+0,w
  3765  0143  0262               	subwf	(sprintf@_val),w
  3766  0144                     u2185:
  3767  0144  1803               	skipnc
  3768  0145  2947               	goto	u2181
  3769  0146  2948               	goto	u2180
  3770  0147                     u2181:
  3771  0147  294A               	goto	l2512
  3772  0148                     u2180:
  3773  0148  2955               	goto	l2516
  3774                           opt subtitle "HI-TECH Software Omniscient Code Generator (Lite mode) build 49521"
  3775                           
  3776  0149                     l2510:	
  3777                           opt subtitle "HI-TECH Software Omniscient Code Generator (Lite mode) build 49521"
  3778  0149  2955               	goto	l2516
  3779                           opt subtitle "HI-TECH Software Omniscient Code Generator (Lite mode) build 49521"
  3780  014A                     l320:	
  3781                           opt subtitle "HI-TECH Software Omniscient Code Generator (Lite mode) build 49521"
  3782                           
  3783  014A                     l2512:	
  3784  014A  3001               	movlw	(01h)
  3785  014B  00D9               	movwf	(??_sprintf+0)+0
  3786  014C  0859               	movf	(??_sprintf+0)+0,w
  3787  014D  07E5               	addwf	(sprintf@c),f
  3788                           opt subtitle "HI-TECH Software Omniscient Code Generator (Lite mode) build 49521"
  3789  014E                     l2514:	
  3790  014E  0865               	movf	(sprintf@c),w
  3791  014F  3A05               	xorlw	05h
  3792  0150  1D03               	skipz
  3793  0151  2953               	goto	u2191
  3794  0152  2954               	goto	u2190
  3795  0153                     u2191:
  3796  0153  2931               	goto	l2508
  3797  0154                     u2190:
  3798  0154  2955               	goto	l2516
  3799                           opt subtitle "HI-TECH Software Omniscient Code Generator (Lite mode) build 49521"
  3800  0155                     l319:	
  3801                           opt subtitle "HI-TECH Software Omniscient Code Generator (Lite mode) build 49521"
  3802                           
  3803  0155                     l2516:	
  3804                           opt subtitle "HI-TECH Software Omniscient Code Generator (Lite mode) build 49521"
  3805  0155  0861               	movf	(sprintf@width+1),w
  3806  0156  0460               	iorwf	(sprintf@width),w
  3807  0157  1903               	skipnz
  3808  0158  295A               	goto	u2201
  3809  0159  295B               	goto	u2200
  3810  015A                     u2201:
  3811  015A  2967               	goto	l321
  3812  015B                     u2200:
  3813                           opt subtitle "HI-TECH Software Omniscient Code Generator (Lite mode) build 49521"
  3814  015B                     l2518:	
  3815  015B  085E               	movf	(sprintf@flag),w
  3816  015C  3903               	andlw	03h
  3817  015D  1903               	btfsc	status,2
  3818  015E  2960               	goto	u2211
  3819  015F  2961               	goto	u2210
  3820  0160                     u2211:
  3821  0160  2967               	goto	l321
  3822  0161                     u2210:
  3823                           opt subtitle "HI-TECH Software Omniscient Code Generator (Lite mode) build 49521"
  3824                           
  3825  0161                     l2520:	
  3826                           opt subtitle "HI-TECH Software Omniscient Code Generator (Lite mode) build 49521"
  3827  0161  30FF               	movlw	low(-1)
  3828  0162  07E0               	addwf	(sprintf@width),f
  3829  0163  1803               	skipnc
  3830  0164  0AE1               	incf	(sprintf@width+1),f
  3831  0165  30FF               	movlw	high(-1)
  3832  0166  07E1               	addwf	(sprintf@width+1),f
  3833                           opt subtitle "HI-TECH Software Omniscient Code Generator (Lite mode) build 49521"
  3834  0167                     l321:	
  3835                           opt subtitle "HI-TECH Software Omniscient Code Generator (Lite mode) build 49521"
  3836                           
  3837  0167  0865               	movf	(sprintf@c),w
  3838  0168  00D9               	movwf	(??_sprintf+0)+0
  3839  0169  01DA               	clrf	(??_sprintf+0)+0+1
  3840  016A  1BD9               	btfsc	(??_sprintf+0)+0,7
  3841  016B  03DA               	decf	(??_sprintf+0)+0+1,f
  3842  016C  085A               	movf	1+(??_sprintf+0)+0,w
  3843  016D  3A80               	xorlw	80h
  3844  016E  00DB               	movwf	(??_sprintf+2)+0
  3845  016F  0861               	movf	(sprintf@width+1),w
  3846  0170  3A80               	xorlw	80h
  3847  0171  025B               	subwf	(??_sprintf+2)+0,w
  3848  0172  1D03               	skipz
  3849  0173  2976               	goto	u2225
  3850  0174  0860               	movf	(sprintf@width),w
  3851  0175  0259               	subwf	0+(??_sprintf+0)+0,w
  3852  0176                     u2225:
  3853                           opt subtitle "HI-TECH Software Omniscient Code Generator (Lite mode) build 49521"
  3854  0176  1803               	skipnc
  3855  0177  2979               	goto	u2221
  3856  0178  297A               	goto	u2220
  3857  0179                     u2221:
  3858  0179  2988               	goto	l2524
  3859  017A                     u2220:
  3860                           opt subtitle "HI-TECH Software Omniscient Code Generator (Lite mode) build 49521"
  3861                           
  3862  017A                     l2522:	
  3863                           opt subtitle "HI-TECH Software Omniscient Code Generator (Lite mode) build 49521"
  3864  017A  1283               	bcf	status, 5	;RP0=0, select bank0
  3865  017B  1303               	bcf	status, 6	;RP1=0, select bank0
  3866  017C  0865               	movf	(sprintf@c),w
  3867  017D  00D9               	movwf	(??_sprintf+0)+0
  3868  017E  01DA               	clrf	(??_sprintf+0)+0+1
  3869  017F  1BD9               	btfsc	(??_sprintf+0)+0,7
  3870  0180  03DA               	decf	(??_sprintf+0)+0+1,f
  3871  0181  0859               	movf	0+(??_sprintf+0)+0,w
  3872  0182  02E0               	subwf	(sprintf@width),f
  3873  0183  085A               	movf	1+(??_sprintf+0)+0,w
  3874  0184  1C03               	skipc
  3875  0185  03E1               	decf	(sprintf@width+1),f
  3876  0186  02E1               	subwf	(sprintf@width+1),f
  3877  0187  298D               	goto	l2526
  3878                           opt subtitle "HI-TECH Software Omniscient Code Generator (Lite mode) build 49521"
  3879                           
  3880  0188                     l322:	
  3881                           opt subtitle "HI-TECH Software Omniscient Code Generator (Lite mode) build 49521"
  3882                           
  3883  0188                     l2524:	
  3884                           opt subtitle "HI-TECH Software Omniscient Code Generator (Lite mode) build 49521"
  3885                           
  3886  0188  1283               	bcf	status, 5	;RP0=0, select bank0
  3887  0189  1303               	bcf	status, 6	;RP1=0, select bank0
  3888  018A  01E0               	clrf	(sprintf@width)
  3889  018B  01E1               	clrf	(sprintf@width+1)
  3890  018C  298D               	goto	l2526
  3891                           opt subtitle "HI-TECH Software Omniscient Code Generator (Lite mode) build 49521"
  3892  018D                     l323:	
  3893                           opt subtitle "HI-TECH Software Omniscient Code Generator (Lite mode) build 49521"
  3894                           
  3895  018D                     l2526:	
  3896                           opt subtitle "HI-TECH Software Omniscient Code Generator (Lite mode) build 49521"
  3897  018D  1D5E               	btfss	(sprintf@flag),(2)&7
  3898  018E  2990               	goto	u2231
  3899  018F  2991               	goto	u2230
  3900  0190                     u2231:
  3901  0190  29C4               	goto	l2542
  3902  0191                     u2230:
  3903                           opt subtitle "HI-TECH Software Omniscient Code Generator (Lite mode) build 49521"
  3904                           
  3905  0191                     l2528:	
  3906                           opt subtitle "HI-TECH Software Omniscient Code Generator (Lite mode) build 49521"
  3907  0191  085E               	movf	(sprintf@flag),w
  3908  0192  3903               	andlw	03h
  3909  0193  1903               	btfsc	status,2
  3910  0194  2996               	goto	u2241
  3911  0195  2997               	goto	u2240
  3912  0196                     u2241:
  3913  0196  29A3               	goto	l2534
  3914  0197                     u2240:
  3915                           opt subtitle "HI-TECH Software Omniscient Code Generator (Lite mode) build 49521"
  3916                           
  3917  0197                     l2530:	
  3918                           opt subtitle "HI-TECH Software Omniscient Code Generator (Lite mode) build 49521"
  3919  0197  302D               	movlw	(02Dh)
  3920  0198  00D9               	movwf	(??_sprintf+0)+0
  3921  0199  085F               	movf	(sprintf@sp),w
  3922  019A  0084               	movwf	fsr0
  3923  019B  0859               	movf	(??_sprintf+0)+0,w
  3924  019C  1383               	bcf	status, 7	;select IRP bank0
  3925  019D  0080               	movwf	indf
  3926                           opt subtitle "HI-TECH Software Omniscient Code Generator (Lite mode) build 49521"
  3927  019E                     l2532:	
  3928  019E  3001               	movlw	(01h)
  3929  019F  00D9               	movwf	(??_sprintf+0)+0
  3930  01A0  0859               	movf	(??_sprintf+0)+0,w
  3931  01A1  07DF               	addwf	(sprintf@sp),f
  3932  01A2  29A3               	goto	l2534
  3933                           opt subtitle "HI-TECH Software Omniscient Code Generator (Lite mode) build 49521"
  3934  01A3                     l325:	
  3935                           opt subtitle "HI-TECH Software Omniscient Code Generator (Lite mode) build 49521"
  3936                           
  3937  01A3                     l2534:	
  3938                           opt subtitle "HI-TECH Software Omniscient Code Generator (Lite mode) build 49521"
  3939  01A3  0861               	movf	(sprintf@width+1),w
  3940  01A4  0460               	iorwf	(sprintf@width),w
  3941  01A5  1903               	skipnz
  3942  01A6  29A8               	goto	u2251
  3943  01A7  29A9               	goto	u2250
  3944  01A8                     u2251:
  3945  01A8  29F7               	goto	l2556
  3946  01A9                     u2250:
  3947  01A9  29AA               	goto	l2536
  3948                           opt subtitle "HI-TECH Software Omniscient Code Generator (Lite mode) build 49521"
  3949                           
  3950                           opt pagewidth 120
  3951  01AA                     l327:	
  3952                           opt subtitle "HI-TECH Software Omniscient Code Generator (Lite mode) build 49521"
  3953                           
  3954  01AA                     l2536:	
  3955                           opt subtitle "HI-TECH Software Omniscient Code Generator (Lite mode) build 49521"
  3956  01AA  3030               	movlw	(030h)
  3957  01AB  00D9               	movwf	(??_sprintf+0)+0
  3958  01AC  085F               	movf	(sprintf@sp),w
  3959  01AD  0084               	movwf	fsr0
  3960  01AE  0859               	movf	(??_sprintf+0)+0,w
  3961  01AF  1383               	bcf	status, 7	;select IRP bank0
  3962  01B0  0080               	movwf	indf
  3963                           opt subtitle "HI-TECH Software Omniscient Code Generator (Lite mode) build 49521"
  3964  01B1                     l2538:	
  3965  01B1  3001               	movlw	(01h)
  3966  01B2  00D9               	movwf	(??_sprintf+0)+0
  3967  01B3  0859               	movf	(??_sprintf+0)+0,w
  3968  01B4  07DF               	addwf	(sprintf@sp),f
  3969                           opt subtitle "HI-TECH Software Omniscient Code Generator (Lite mode) build 49521"
  3970                           
  3971  01B5                     l2540:	
  3972                           opt subtitle "HI-TECH Software Omniscient Code Generator (Lite mode) build 49521"
  3973  01B5  30FF               	movlw	low(-1)
  3974  01B6  07E0               	addwf	(sprintf@width),f
  3975  01B7  1803               	skipnc
  3976  01B8  0AE1               	incf	(sprintf@width+1),f
  3977  01B9  30FF               	movlw	high(-1)
  3978  01BA  07E1               	addwf	(sprintf@width+1),f
  3979  01BB  0861               	movf	(((sprintf@width+1))),w
  3980  01BC  0460               	iorwf	(((sprintf@width))),w
  3981  01BD  1D03               	skipz
  3982  01BE  29C0               	goto	u2261
  3983  01BF  29C1               	goto	u2260
  3984  01C0                     u2261:
  3985  01C0  29AA               	goto	l2536
  3986  01C1                     u2260:
  3987  01C1  29F7               	goto	l2556
  3988                           opt subtitle "HI-TECH Software Omniscient Code Generator (Lite mode) build 49521"
  3989  01C2                     l328:	
  3990  01C2  29F7               	goto	l2556
  3991                           opt subtitle "HI-TECH Software Omniscient Code Generator (Lite mode) build 49521"
  3992  01C3                     l326:	
  3993                           opt subtitle "HI-TECH Software Omniscient Code Generator (Lite mode) build 49521"
  3994                           
  3995  01C3  29F7               	goto	l2556
  3996                           opt subtitle "HI-TECH Software Omniscient Code Generator (Lite mode) build 49521"
  3997  01C4                     l324:	
  3998                           opt subtitle "HI-TECH Software Omniscient Code Generator (Lite mode) build 49521"
  3999                           
  4000  01C4                     l2542:	
  4001                           opt subtitle "HI-TECH Software Omniscient Code Generator (Lite mode) build 49521"
  4002                           
  4003                           opt pagewidth 120
  4004  01C4  0861               	movf	(sprintf@width+1),w
  4005  01C5  0460               	iorwf	(sprintf@width),w
  4006  01C6  1903               	skipnz
  4007  01C7  29C9               	goto	u2271
  4008  01C8  29CA               	goto	u2270
  4009  01C9                     u2271:
  4010  01C9  29E4               	goto	l2550
  4011  01CA                     u2270:
  4012  01CA  29CB               	goto	l2544
  4013                           opt subtitle "HI-TECH Software Omniscient Code Generator (Lite mode) build 49521"
  4014                           
  4015                           opt pagewidth 120
  4016  01CB                     l331:	
  4017                           opt subtitle "HI-TECH Software Omniscient Code Generator (Lite mode) build 49521"
  4018                           
  4019  01CB                     l2544:	
  4020                           opt subtitle "HI-TECH Software Omniscient Code Generator (Lite mode) build 49521"
  4021  01CB  3020               	movlw	(020h)
  4022  01CC  00D9               	movwf	(??_sprintf+0)+0
  4023  01CD  085F               	movf	(sprintf@sp),w
  4024  01CE  0084               	movwf	fsr0
  4025  01CF  0859               	movf	(??_sprintf+0)+0,w
  4026  01D0  1383               	bcf	status, 7	;select IRP bank0
  4027  01D1  0080               	movwf	indf
  4028                           opt subtitle "HI-TECH Software Omniscient Code Generator (Lite mode) build 49521"
  4029  01D2                     l2546:	
  4030  01D2  3001               	movlw	(01h)
  4031  01D3  00D9               	movwf	(??_sprintf+0)+0
  4032  01D4  0859               	movf	(??_sprintf+0)+0,w
  4033  01D5  07DF               	addwf	(sprintf@sp),f
  4034                           opt subtitle "HI-TECH Software Omniscient Code Generator (Lite mode) build 49521"
  4035                           
  4036  01D6                     l2548:	
  4037                           opt subtitle "HI-TECH Software Omniscient Code Generator (Lite mode) build 49521"
  4038  01D6  30FF               	movlw	low(-1)
  4039  01D7  07E0               	addwf	(sprintf@width),f
  4040  01D8  1803               	skipnc
  4041  01D9  0AE1               	incf	(sprintf@width+1),f
  4042  01DA  30FF               	movlw	high(-1)
  4043  01DB  07E1               	addwf	(sprintf@width+1),f
  4044  01DC  0861               	movf	(((sprintf@width+1))),w
  4045  01DD  0460               	iorwf	(((sprintf@width))),w
  4046  01DE  1D03               	skipz
  4047  01DF  29E1               	goto	u2281
  4048  01E0  29E2               	goto	u2280
  4049  01E1                     u2281:
  4050  01E1  29CB               	goto	l2544
  4051  01E2                     u2280:
  4052  01E2  29E4               	goto	l2550
  4053                           opt subtitle "HI-TECH Software Omniscient Code Generator (Lite mode) build 49521"
  4054  01E3                     l332:	
  4055  01E3  29E4               	goto	l2550
  4056                           opt subtitle "HI-TECH Software Omniscient Code Generator (Lite mode) build 49521"
  4057  01E4                     l330:	
  4058                           opt subtitle "HI-TECH Software Omniscient Code Generator (Lite mode) build 49521"
  4059                           
  4060  01E4                     l2550:	
  4061                           opt subtitle "HI-TECH Software Omniscient Code Generator (Lite mode) build 49521"
  4062  01E4  085E               	movf	(sprintf@flag),w
  4063  01E5  3903               	andlw	03h
  4064  01E6  1903               	btfsc	status,2
  4065  01E7  29E9               	goto	u2291
  4066  01E8  29EA               	goto	u2290
  4067  01E9                     u2291:
  4068  01E9  29F7               	goto	l2556
  4069  01EA                     u2290:
  4070                           opt subtitle "HI-TECH Software Omniscient Code Generator (Lite mode) build 49521"
  4071                           
  4072  01EA                     l2552:	
  4073                           opt subtitle "HI-TECH Software Omniscient Code Generator (Lite mode) build 49521"
  4074  01EA  302D               	movlw	(02Dh)
  4075  01EB  00D9               	movwf	(??_sprintf+0)+0
  4076  01EC  085F               	movf	(sprintf@sp),w
  4077  01ED  0084               	movwf	fsr0
  4078  01EE  0859               	movf	(??_sprintf+0)+0,w
  4079  01EF  1383               	bcf	status, 7	;select IRP bank0
  4080  01F0  0080               	movwf	indf
  4081                           opt subtitle "HI-TECH Software Omniscient Code Generator (Lite mode) build 49521"
  4082  01F1                     l2554:	
  4083  01F1  3001               	movlw	(01h)
  4084  01F2  00D9               	movwf	(??_sprintf+0)+0
  4085  01F3  0859               	movf	(??_sprintf+0)+0,w
  4086  01F4  07DF               	addwf	(sprintf@sp),f
  4087  01F5  29F7               	goto	l2556
  4088                           opt subtitle "HI-TECH Software Omniscient Code Generator (Lite mode) build 49521"
  4089  01F6                     l333:	
  4090  01F6  29F7               	goto	l2556
  4091                           opt subtitle "HI-TECH Software Omniscient Code Generator (Lite mode) build 49521"
  4092                           
  4093  01F7                     l329:	
  4094                           opt subtitle "HI-TECH Software Omniscient Code Generator (Lite mode) build 49521"
  4095                           
  4096  01F7                     l2556:	
  4097                           opt subtitle "HI-TECH Software Omniscient Code Generator (Lite mode) build 49521"
  4098                           
  4099  01F7  0865               	movf	(sprintf@c),w
  4100  01F8  00D9               	movwf	(??_sprintf+0)+0
  4101  01F9  0859               	movf	(??_sprintf+0)+0,w
  4102  01FA  00DD               	movwf	(sprintf@prec)
  4103                           opt subtitle "HI-TECH Software Omniscient Code Generator (Lite mode) build 49521"
  4104                           
  4105  01FB  2A34               	goto	l2564
  4106                           opt subtitle "HI-TECH Software Omniscient Code Generator (Lite mode) build 49521"
  4107  01FC                     l335:	
  4108                           opt subtitle "HI-TECH Software Omniscient Code Generator (Lite mode) build 49521"
  4109                           
  4110  01FC                     l2558:	
  4111                           opt subtitle "HI-TECH Software Omniscient Code Generator (Lite mode) build 49521"
  4112                           
  4113  01FC  300A               	movlw	low(0Ah)
  4114  01FD  00CF               	movwf	(?___lwmod)
  4115  01FE  3000               	movlw	high(0Ah)
  4116  01FF  00D0               	movwf	((?___lwmod))+1
  4117  0200  085D               	movf	(sprintf@prec),w
  4118  0201  00D9               	movwf	(??_sprintf+0)+0
  4119  0202  0759               	addwf	(??_sprintf+0)+0,w
  4120  0203  3E01               	addlw	low((_dpowers-__stringbase))
  4121  0204  0084               	movwf	fsr0
  4122  0205  118A  250A  118A   	fcall	stringdir
  4123  0208  00C8               	movwf	(?___lwdiv)
  4124  0209  118A  250A  118A   	fcall	stringdir
  4125  020C  00C9               	movwf	(?___lwdiv+1)
  4126  020D  0863               	movf	(sprintf@_val+1),w
  4127  020E  01CB               	clrf	1+(?___lwdiv)+02h
  4128  020F  07CB               	addwf	1+(?___lwdiv)+02h
  4129  0210  0862               	movf	(sprintf@_val),w
  4130  0211  01CA               	clrf	0+(?___lwdiv)+02h
  4131  0212  07CA               	addwf	0+(?___lwdiv)+02h
  4132                           opt subtitle "HI-TECH Software Omniscient Code Generator (Lite mode) build 49521"
  4133  0213  118A  255C  118A   	fcall	___lwdiv
  4134  0216  1283               	bcf	status, 5	;RP0=0, select bank0
  4135  0217  1303               	bcf	status, 6	;RP1=0, select bank0
  4136  0218  0849               	movf	(1+(?___lwdiv)),w
  4137  0219  01D2               	clrf	1+(?___lwmod)+02h
  4138  021A  07D2               	addwf	1+(?___lwmod)+02h
  4139  021B  0848               	movf	(0+(?___lwdiv)),w
  4140  021C  01D1               	clrf	0+(?___lwmod)+02h
  4141  021D  07D1               	addwf	0+(?___lwmod)+02h
  4142                           opt subtitle "HI-TECH Software Omniscient Code Generator (Lite mode) build 49521"
  4143  021E  118A  268A  118A   	fcall	___lwmod
  4144  0221  1283               	bcf	status, 5	;RP0=0, select bank0
  4145  0222  1303               	bcf	status, 6	;RP1=0, select bank0
  4146  0223  084F               	movf	(0+(?___lwmod)),w
  4147  0224  3E30               	addlw	030h
  4148  0225  00DA               	movwf	(??_sprintf+1)+0
  4149  0226  085A               	movf	(??_sprintf+1)+0,w
  4150  0227  00E5               	movwf	(sprintf@c)
  4151                           opt subtitle "HI-TECH Software Omniscient Code Generator (Lite mode) build 49521"
  4152                           
  4153  0228                     l2560:	
  4154                           opt subtitle "HI-TECH Software Omniscient Code Generator (Lite mode) build 49521"
  4155                           
  4156  0228  0865               	movf	(sprintf@c),w
  4157  0229  00D9               	movwf	(??_sprintf+0)+0
  4158  022A  085F               	movf	(sprintf@sp),w
  4159  022B  0084               	movwf	fsr0
  4160  022C  0859               	movf	(??_sprintf+0)+0,w
  4161  022D  1383               	bcf	status, 7	;select IRP bank0
  4162  022E  0080               	movwf	indf
  4163                           opt subtitle "HI-TECH Software Omniscient Code Generator (Lite mode) build 49521"
  4164  022F                     l2562:	
  4165  022F  3001               	movlw	(01h)
  4166  0230  00D9               	movwf	(??_sprintf+0)+0
  4167  0231  0859               	movf	(??_sprintf+0)+0,w
  4168  0232  07DF               	addwf	(sprintf@sp),f
  4169  0233  2A34               	goto	l2564
  4170                           opt subtitle "HI-TECH Software Omniscient Code Generator (Lite mode) build 49521"
  4171                           
  4172  0234                     l334:	
  4173                           opt subtitle "HI-TECH Software Omniscient Code Generator (Lite mode) build 49521"
  4174                           
  4175  0234                     l2564:	
  4176  0234  30FF               	movlw	(-1)
  4177  0235  00D9               	movwf	(??_sprintf+0)+0
  4178  0236  0859               	movf	(??_sprintf+0)+0,w
  4179  0237  07DD               	addwf	(sprintf@prec),f
  4180  0238  085D               	movf	((sprintf@prec)),w
  4181  0239  3AFF               	xorlw	-1
  4182  023A  1D03               	skipz
  4183  023B  2A3D               	goto	u2301
  4184  023C  2A3E               	goto	u2300
  4185  023D                     u2301:
  4186  023D  29FC               	goto	l2558
  4187  023E                     u2300:
  4188  023E  2A40               	goto	l2566
  4189                           opt subtitle "HI-TECH Software Omniscient Code Generator (Lite mode) build 49521"
  4190  023F                     l336:	
  4191  023F  2A40               	goto	l2566
  4192                           opt subtitle "HI-TECH Software Omniscient Code Generator (Lite mode) build 49521"
  4193                           
  4194  0240                     l289:	
  4195                           opt subtitle "HI-TECH Software Omniscient Code Generator (Lite mode) build 49521"
  4196                           
  4197  0240                     l2566:	
  4198  0240  3001               	movlw	01h
  4199  0241  07D4               	addwf	(sprintf@f),f
  4200  0242  30FF               	movlw	-01h
  4201  0243  0754               	addwf	(sprintf@f),w
  4202  0244  0084               	movwf	fsr0
  4203  0245  118A  250A  118A   	fcall	stringdir
  4204  0248  00D9               	movwf	(??_sprintf+0)+0
  4205  0249  0859               	movf	(??_sprintf+0)+0,w
  4206  024A  00E5               	movwf	(sprintf@c)
  4207  024B  08E5               	movf	((sprintf@c)),f
  4208  024C  1D03               	skipz
  4209  024D  2A4F               	goto	u2311
  4210  024E  2A50               	goto	u2310
  4211  024F                     u2311:
  4212  024F  281B               	goto	l2440
  4213  0250                     u2310:
  4214  0250  2A52               	goto	l2568
  4215                           opt subtitle "HI-TECH Software Omniscient Code Generator (Lite mode) build 49521"
  4216  0251                     l337:	
  4217  0251  2A52               	goto	l2568
  4218                           opt subtitle "HI-TECH Software Omniscient Code Generator (Lite mode) build 49521"
  4219                           
  4220                           opt pagewidth 120
  4221                           
  4222                           	opt lm
  4223  0252                     l303:	
  4224                           opt subtitle "HI-TECH Software Omniscient Code Generator (Lite mode) build 49521"
  4225                           
  4226  0252                     l2568:	
  4227                           opt subtitle "HI-TECH Software Omniscient Code Generator (Lite mode) build 49521"
  4228  0252  1283               	bcf	status, 5	;RP0=0, select bank0
  4229  0253  1303               	bcf	status, 6	;RP1=0, select bank0
  4230  0254  085F               	movf	(sprintf@sp),w
  4231  0255  0084               	movwf	fsr0
  4232  0256  1383               	bcf	status, 7	;select IRP bank0
  4233  0257  0180               	clrf	indf
  4234  0258  2A59               	goto	l338
  4235                           opt subtitle "HI-TECH Software Omniscient Code Generator (Lite mode) build 49521"
  4236                           
  4237  0259                     l2570:	
  4238                           opt subtitle "HI-TECH Software Omniscient Code Generator (Lite mode) build 49521"
  4239                           
  4240                           opt pagewidth 120
  4241                           
  4242  0259                     l338:	
  4243  0259  0008               	return
  4244                           opt subtitle "HI-TECH Software Omniscient Code Generator (Lite mode) build 49521"
  4245                           
  4246  025A                     	__end_of_sprintf:
  4247                           opt subtitle "HI-TECH Software Omniscient Code Generator (Lite mode) build 49521"
  4248                           
  4249                           opt pagewidth 120
  4250                           
  4251                           	opt lm
  4252                           
  4253                           	processor	16F88
  4254                           clrc	macro
  4255                           	bcf	3,0
  4256                           	endm
  4257                           clrz	macro
  4258                           	bcf	3,2
  4259                           	endm
  4260                           setc	macro
  4261                           	bsf	3,0
  4262                           	endm
  4263                           setz	macro
  4264                           	bsf	3,2
  4265                           	endm
  4266                           skipc	macro
  4267                           	btfss	3,0
  4268                           	endm
  4269                           skipz	macro
  4270                           	btfss	3,2
  4271                           	endm
  4272                           skipnc	macro
  4273                           	btfsc	3,0
  4274                           	endm
  4275                           skipnz	macro
  4276                           	btfsc	3,2
  4277                           	endm
  4278                           indf	equ	0
  4279                           indf0	equ	0
  4280                           pc	equ	2
  4281                           pcl	equ	2
  4282                           status	equ	3
  4283                           fsr	equ	4
  4284                           fsr0	equ	4
  4285                           c	equ	1
  4286  0332                     __ptext893:	;psect for function _dhtlib_read
  4287                           opt subtitle "HI-TECH Software Omniscient Code Generator (Lite mode) build 49521"
  4288                           
  4289                           opt pagewidth 120
  4290                           
  4291  00CF                     	__size_of_dhtlib_read	equ	__end_of_dhtlib_read-_dhtlib_read
  4292                           opt subtitle "HI-TECH Software Omniscient Code Generator (Lite mode) build 49521"
  4293  0332                     _dhtlib_read:	
  4294                           opt subtitle "HI-TECH Software Omniscient Code Generator (Lite mode) build 49521"
  4295                           
  4296                           opt pagewidth 120
  4297                           
  4298  0332                     l2572:	
  4299                           opt subtitle "HI-TECH Software Omniscient Code Generator (Lite mode) build 49521"
  4300  0332  1283               	bcf	status, 5	;RP0=0, select bank0
  4301  0333  1303               	bcf	status, 6	;RP1=0, select bank0
  4302  0334  01CD               	clrf	(dhtlib_read@i)
  4303                           opt subtitle "HI-TECH Software Omniscient Code Generator (Lite mode) build 49521"
  4304                           
  4305  0335  01CA               	clrf	(dhtlib_read@aindex)
  4306                           opt subtitle "HI-TECH Software Omniscient Code Generator (Lite mode) build 49521"
  4307                           
  4308  0336                     l2574:	
  4309                           opt subtitle "HI-TECH Software Omniscient Code Generator (Lite mode) build 49521"
  4310  0336  3007               	movlw	(07h)
  4311  0337  00C8               	movwf	(??_dhtlib_read+0)+0
  4312  0338  0848               	movf	(??_dhtlib_read+0)+0,w
  4313  0339  00CB               	movwf	(dhtlib_read@bcount)
  4314                           opt subtitle "HI-TECH Software Omniscient Code Generator (Lite mode) build 49521"
  4315                           
  4316  033A                     l2576:	
  4317                           opt subtitle "HI-TECH Software Omniscient Code Generator (Lite mode) build 49521"
  4318  033A  01CC               	clrf	(dhtlib_read@tocounter)
  4319                           opt subtitle "HI-TECH Software Omniscient Code Generator (Lite mode) build 49521"
  4320                           
  4321  033B                     l2578:	
  4322                           opt subtitle "HI-TECH Software Omniscient Code Generator (Lite mode) build 49521"
  4323  033B  01CD               	clrf	(dhtlib_read@i)
  4324  033C  3005               	movlw	(05h)
  4325  033D  024D               	subwf	(dhtlib_read@i),w
  4326  033E  1C03               	skipc
  4327  033F  2B41               	goto	u2321
  4328  0340  2B42               	goto	u2320
  4329  0341                     u2321:
  4330  0341  2B44               	goto	l2582
  4331  0342                     u2320:
  4332  0342  2B53               	goto	l77
  4333                           opt subtitle "HI-TECH Software Omniscient Code Generator (Lite mode) build 49521"
  4334  0343                     l2580:	
  4335  0343  2B53               	goto	l77
  4336                           opt subtitle "HI-TECH Software Omniscient Code Generator (Lite mode) build 49521"
  4337  0344                     l76:	
  4338                           opt subtitle "HI-TECH Software Omniscient Code Generator (Lite mode) build 49521"
  4339  0344                     l2582:	
  4340  0344  084D               	movf	(dhtlib_read@i),w
  4341  0345  3E26               	addlw	_bits&0ffh
  4342  0346  0084               	movwf	fsr0
  4343  0347  1383               	bcf	status, 7	;select IRP bank0
  4344  0348  0180               	clrf	indf
  4345                           opt subtitle "HI-TECH Software Omniscient Code Generator (Lite mode) build 49521"
  4346  0349                     l2584:	
  4347  0349  3001               	movlw	(01h)
  4348  034A  00C8               	movwf	(??_dhtlib_read+0)+0
  4349  034B  0848               	movf	(??_dhtlib_read+0)+0,w
  4350  034C  07CD               	addwf	(dhtlib_read@i),f
  4351                           opt subtitle "HI-TECH Software Omniscient Code Generator (Lite mode) build 49521"
  4352  034D                     l2586:	
  4353  034D  3005               	movlw	(05h)
  4354  034E  024D               	subwf	(dhtlib_read@i),w
  4355  034F  1C03               	skipc
  4356  0350  2B52               	goto	u2331
  4357  0351  2B53               	goto	u2330
  4358  0352                     u2331:
  4359  0352  2B44               	goto	l2582
  4360  0353                     u2330:
  4361                           opt subtitle "HI-TECH Software Omniscient Code Generator (Lite mode) build 49521"
  4362  0353                     l77:	
  4363                           opt subtitle "HI-TECH Software Omniscient Code Generator (Lite mode) build 49521"
  4364                           
  4365  0353  138B               	bcf	(95/8),(95)&7	;volatile
  4366                           opt subtitle "HI-TECH Software Omniscient Code Generator (Lite mode) build 49521"
  4367                           
  4368  0354                     l2588:	
  4369                           opt subtitle "HI-TECH Software Omniscient Code Generator (Lite mode) build 49521"
  4370  0354  158A  27E3  118A   	fcall	_dhtlib_start
  4371                           opt subtitle "HI-TECH Software Omniscient Code Generator (Lite mode) build 49521"
  4372                           
  4373  0357                     l2590:	
  4374                           opt subtitle "HI-TECH Software Omniscient Code Generator (Lite mode) build 49521"
  4375  0357  1283               	bcf	status, 5	;RP0=0, select bank0
  4376  0358  1303               	bcf	status, 6	;RP1=0, select bank0
  4377  0359  01CC               	clrf	(dhtlib_read@tocounter)
  4378  035A  0ACC               	incf	(dhtlib_read@tocounter),f
  4379                           opt subtitle "HI-TECH Software Omniscient Code Generator (Lite mode) build 49521"
  4380                           
  4381  035B  2B68               	goto	l78
  4382                           opt subtitle "HI-TECH Software Omniscient Code Generator (Lite mode) build 49521"
  4383  035C                     l79:	
  4384                           opt subtitle "HI-TECH Software Omniscient Code Generator (Lite mode) build 49521"
  4385                           
  4386  035C                     l2592:	
  4387                           opt subtitle "HI-TECH Software Omniscient Code Generator (Lite mode) build 49521"
  4388  035C  3001               	movlw	(01h)
  4389  035D  00C8               	movwf	(??_dhtlib_read+0)+0
  4390  035E  0848               	movf	(??_dhtlib_read+0)+0,w
  4391  035F  07CC               	addwf	(dhtlib_read@tocounter),f
  4392  0360  084C               	movf	((dhtlib_read@tocounter)),w
  4393  0361  3A01               	xorlw	01h
  4394  0362  1D03               	skipz
  4395  0363  2B65               	goto	u2341
  4396  0364  2B66               	goto	u2340
  4397  0365                     u2341:
  4398  0365  2B68               	goto	l78
  4399  0366                     u2340:
  4400  0366  2BFD               	goto	l81
  4401                           opt subtitle "HI-TECH Software Omniscient Code Generator (Lite mode) build 49521"
  4402                           
  4403  0367                     l2594:	
  4404                           opt subtitle "HI-TECH Software Omniscient Code Generator (Lite mode) build 49521"
  4405  0367  2BFD               	goto	l81
  4406                           opt subtitle "HI-TECH Software Omniscient Code Generator (Lite mode) build 49521"
  4407  0368                     l80:	
  4408                           opt subtitle "HI-TECH Software Omniscient Code Generator (Lite mode) build 49521"
  4409                           
  4410  0368                     l78:	
  4411                           opt subtitle "HI-TECH Software Omniscient Code Generator (Lite mode) build 49521"
  4412  0368  1D06               	btfss	(6),2	;volatile
  4413  0369  2B6B               	goto	u2351
  4414  036A  2B6C               	goto	u2350
  4415  036B                     u2351:
  4416  036B  2B5C               	goto	l2592
  4417  036C                     u2350:
  4418                           opt subtitle "HI-TECH Software Omniscient Code Generator (Lite mode) build 49521"
  4419  036C                     l82:	
  4420                           opt subtitle "HI-TECH Software Omniscient Code Generator (Lite mode) build 49521"
  4421                           
  4422                           opt pagewidth 120
  4423  036C  01CC               	clrf	(dhtlib_read@tocounter)
  4424  036D  0ACC               	incf	(dhtlib_read@tocounter),f
  4425                           opt subtitle "HI-TECH Software Omniscient Code Generator (Lite mode) build 49521"
  4426                           
  4427  036E  2B7B               	goto	l83
  4428                           opt subtitle "HI-TECH Software Omniscient Code Generator (Lite mode) build 49521"
  4429  036F                     l84:	
  4430                           opt subtitle "HI-TECH Software Omniscient Code Generator (Lite mode) build 49521"
  4431                           
  4432  036F                     l2596:	
  4433                           opt subtitle "HI-TECH Software Omniscient Code Generator (Lite mode) build 49521"
  4434  036F  3001               	movlw	(01h)
  4435  0370  00C8               	movwf	(??_dhtlib_read+0)+0
  4436  0371  0848               	movf	(??_dhtlib_read+0)+0,w
  4437  0372  07CC               	addwf	(dhtlib_read@tocounter),f
  4438  0373  084C               	movf	((dhtlib_read@tocounter)),w
  4439  0374  3A01               	xorlw	01h
  4440  0375  1D03               	skipz
  4441  0376  2B78               	goto	u2361
  4442  0377  2B79               	goto	u2360
  4443  0378                     u2361:
  4444  0378  2B7B               	goto	l83
  4445  0379                     u2360:
  4446  0379  2BFD               	goto	l81
  4447                           opt subtitle "HI-TECH Software Omniscient Code Generator (Lite mode) build 49521"
  4448                           
  4449  037A                     l2598:	
  4450                           opt subtitle "HI-TECH Software Omniscient Code Generator (Lite mode) build 49521"
  4451  037A  2BFD               	goto	l81
  4452                           opt subtitle "HI-TECH Software Omniscient Code Generator (Lite mode) build 49521"
  4453  037B                     l85:	
  4454                           opt subtitle "HI-TECH Software Omniscient Code Generator (Lite mode) build 49521"
  4455                           
  4456  037B                     l83:	
  4457                           opt subtitle "HI-TECH Software Omniscient Code Generator (Lite mode) build 49521"
  4458  037B  1906               	btfsc	(6),2	;volatile
  4459  037C  2B7E               	goto	u2371
  4460  037D  2B7F               	goto	u2370
  4461  037E                     u2371:
  4462  037E  2B6F               	goto	l2596
  4463  037F                     u2370:
  4464                           opt subtitle "HI-TECH Software Omniscient Code Generator (Lite mode) build 49521"
  4465  037F                     l86:	
  4466                           opt subtitle "HI-TECH Software Omniscient Code Generator (Lite mode) build 49521"
  4467                           
  4468                           opt pagewidth 120
  4469  037F  01CD               	clrf	(dhtlib_read@i)
  4470                           opt subtitle "HI-TECH Software Omniscient Code Generator (Lite mode) build 49521"
  4471  0380                     l2600:	
  4472  0380  3028               	movlw	(028h)
  4473  0381  024D               	subwf	(dhtlib_read@i),w
  4474  0382  1C03               	skipc
  4475  0383  2B85               	goto	u2381
  4476  0384  2B86               	goto	u2380
  4477  0385                     u2381:
  4478  0385  2B88               	goto	l87
  4479  0386                     u2380:
  4480  0386  2BF9               	goto	l88
  4481                           opt subtitle "HI-TECH Software Omniscient Code Generator (Lite mode) build 49521"
  4482  0387                     l2602:	
  4483  0387  2BF9               	goto	l88
  4484                           opt subtitle "HI-TECH Software Omniscient Code Generator (Lite mode) build 49521"
  4485  0388                     l87:	
  4486                           opt subtitle "HI-TECH Software Omniscient Code Generator (Lite mode) build 49521"
  4487                           
  4488  0388  01CC               	clrf	(dhtlib_read@tocounter)
  4489  0389  0ACC               	incf	(dhtlib_read@tocounter),f
  4490                           opt subtitle "HI-TECH Software Omniscient Code Generator (Lite mode) build 49521"
  4491                           
  4492  038A  2B97               	goto	l89
  4493                           opt subtitle "HI-TECH Software Omniscient Code Generator (Lite mode) build 49521"
  4494  038B                     l90:	
  4495                           opt subtitle "HI-TECH Software Omniscient Code Generator (Lite mode) build 49521"
  4496                           
  4497  038B                     l2604:	
  4498                           opt subtitle "HI-TECH Software Omniscient Code Generator (Lite mode) build 49521"
  4499  038B  3001               	movlw	(01h)
  4500  038C  00C8               	movwf	(??_dhtlib_read+0)+0
  4501  038D  0848               	movf	(??_dhtlib_read+0)+0,w
  4502  038E  07CC               	addwf	(dhtlib_read@tocounter),f
  4503  038F  084C               	movf	((dhtlib_read@tocounter)),w
  4504  0390  3A01               	xorlw	01h
  4505  0391  1D03               	skipz
  4506  0392  2B94               	goto	u2391
  4507  0393  2B95               	goto	u2390
  4508  0394                     u2391:
  4509  0394  2B97               	goto	l89
  4510  0395                     u2390:
  4511  0395  2BFD               	goto	l81
  4512                           opt subtitle "HI-TECH Software Omniscient Code Generator (Lite mode) build 49521"
  4513                           
  4514  0396                     l2606:	
  4515                           opt subtitle "HI-TECH Software Omniscient Code Generator (Lite mode) build 49521"
  4516  0396  2BFD               	goto	l81
  4517                           opt subtitle "HI-TECH Software Omniscient Code Generator (Lite mode) build 49521"
  4518  0397                     l91:	
  4519                           opt subtitle "HI-TECH Software Omniscient Code Generator (Lite mode) build 49521"
  4520                           
  4521  0397                     l89:	
  4522                           opt subtitle "HI-TECH Software Omniscient Code Generator (Lite mode) build 49521"
  4523  0397  1D06               	btfss	(6),2	;volatile
  4524  0398  2B9A               	goto	u2401
  4525  0399  2B9B               	goto	u2400
  4526  039A                     u2401:
  4527  039A  2B8B               	goto	l2604
  4528  039B                     u2400:
  4529  039B  2B9C               	goto	l2608
  4530                           opt subtitle "HI-TECH Software Omniscient Code Generator (Lite mode) build 49521"
  4531  039C                     l92:	
  4532                           opt subtitle "HI-TECH Software Omniscient Code Generator (Lite mode) build 49521"
  4533                           
  4534  039C                     l2608:	
  4535                           opt subtitle "HI-TECH Software Omniscient Code Generator (Lite mode) build 49521"
  4536                           
  4537                           opt pagewidth 120
  4538  039C  301A               movlw	26
  4539  039D  00C8               movwf	(??_dhtlib_read+0)+0,f
  4540  039E                     u2977:
  4541  039E  0BC8               decfsz	(??_dhtlib_read+0)+0,f
  4542  039F  2B9E               	goto	u2977
  4543  03A0  0000               	nop
  4544                           opt subtitle "HI-TECH Software Omniscient Code Generator (Lite mode) build 49521"
  4545                           
  4546                           opt pagewidth 120
  4547                           
  4548  03A1                     l2610:	
  4549                           opt subtitle "HI-TECH Software Omniscient Code Generator (Lite mode) build 49521"
  4550  03A1  1283               	bcf	status, 5	;RP0=0, select bank0
  4551  03A2  1303               	bcf	status, 6	;RP1=0, select bank0
  4552  03A3  1906               	btfsc	(6),2	;volatile
  4553  03A4  2BA6               	goto	u2411
  4554  03A5  2BA7               	goto	u2410
  4555  03A6                     u2411:
  4556  03A6  2BB9               	goto	l93
  4557  03A7                     u2410:
  4558                           opt subtitle "HI-TECH Software Omniscient Code Generator (Lite mode) build 49521"
  4559                           
  4560  03A7                     l2612:	
  4561                           opt subtitle "HI-TECH Software Omniscient Code Generator (Lite mode) build 49521"
  4562  03A7  08CB               	movf	(dhtlib_read@bcount),f
  4563  03A8  1D03               	skipz
  4564  03A9  2BAB               	goto	u2421
  4565  03AA  2BAC               	goto	u2420
  4566  03AB                     u2421:
  4567  03AB  2BB5               	goto	l2618
  4568  03AC                     u2420:
  4569                           opt subtitle "HI-TECH Software Omniscient Code Generator (Lite mode) build 49521"
  4570                           
  4571  03AC                     l2614:	
  4572                           opt subtitle "HI-TECH Software Omniscient Code Generator (Lite mode) build 49521"
  4573  03AC  3007               	movlw	(07h)
  4574  03AD  00C8               	movwf	(??_dhtlib_read+0)+0
  4575  03AE  0848               	movf	(??_dhtlib_read+0)+0,w
  4576  03AF  00CB               	movwf	(dhtlib_read@bcount)
  4577                           opt subtitle "HI-TECH Software Omniscient Code Generator (Lite mode) build 49521"
  4578                           
  4579  03B0                     l2616:	
  4580                           opt subtitle "HI-TECH Software Omniscient Code Generator (Lite mode) build 49521"
  4581  03B0  3001               	movlw	(01h)
  4582  03B1  00C8               	movwf	(??_dhtlib_read+0)+0
  4583  03B2  0848               	movf	(??_dhtlib_read+0)+0,w
  4584  03B3  07CA               	addwf	(dhtlib_read@aindex),f
  4585                           opt subtitle "HI-TECH Software Omniscient Code Generator (Lite mode) build 49521"
  4586                           
  4587  03B4  2BEF               	goto	l96
  4588                           opt subtitle "HI-TECH Software Omniscient Code Generator (Lite mode) build 49521"
  4589  03B5                     l94:	
  4590                           opt subtitle "HI-TECH Software Omniscient Code Generator (Lite mode) build 49521"
  4591                           
  4592  03B5                     l2618:	
  4593                           opt subtitle "HI-TECH Software Omniscient Code Generator (Lite mode) build 49521"
  4594  03B5  3001               	movlw	low(01h)
  4595  03B6  02CB               	subwf	(dhtlib_read@bcount),f
  4596  03B7  2BEF               	goto	l96
  4597                           opt subtitle "HI-TECH Software Omniscient Code Generator (Lite mode) build 49521"
  4598                           
  4599  03B8                     l95:	
  4600                           opt subtitle "HI-TECH Software Omniscient Code Generator (Lite mode) build 49521"
  4601                           
  4602                           opt pagewidth 120
  4603  03B8  2BEF               	goto	l96
  4604                           opt subtitle "HI-TECH Software Omniscient Code Generator (Lite mode) build 49521"
  4605                           
  4606  03B9                     l93:	
  4607                           opt subtitle "HI-TECH Software Omniscient Code Generator (Lite mode) build 49521"
  4608                           
  4609                           opt pagewidth 120
  4610  03B9  01CC               	clrf	(dhtlib_read@tocounter)
  4611  03BA  0ACC               	incf	(dhtlib_read@tocounter),f
  4612                           opt subtitle "HI-TECH Software Omniscient Code Generator (Lite mode) build 49521"
  4613                           
  4614  03BB  2BC8               	goto	l97
  4615                           opt subtitle "HI-TECH Software Omniscient Code Generator (Lite mode) build 49521"
  4616  03BC                     l98:	
  4617                           opt subtitle "HI-TECH Software Omniscient Code Generator (Lite mode) build 49521"
  4618                           
  4619  03BC                     l2620:	
  4620                           opt subtitle "HI-TECH Software Omniscient Code Generator (Lite mode) build 49521"
  4621  03BC  3001               	movlw	(01h)
  4622  03BD  00C8               	movwf	(??_dhtlib_read+0)+0
  4623  03BE  0848               	movf	(??_dhtlib_read+0)+0,w
  4624  03BF  07CC               	addwf	(dhtlib_read@tocounter),f
  4625  03C0  084C               	movf	((dhtlib_read@tocounter)),w
  4626  03C1  3A01               	xorlw	01h
  4627  03C2  1D03               	skipz
  4628  03C3  2BC5               	goto	u2431
  4629  03C4  2BC6               	goto	u2430
  4630  03C5                     u2431:
  4631  03C5  2BC8               	goto	l97
  4632  03C6                     u2430:
  4633  03C6  2BFD               	goto	l81
  4634                           opt subtitle "HI-TECH Software Omniscient Code Generator (Lite mode) build 49521"
  4635                           
  4636  03C7                     l2622:	
  4637                           opt subtitle "HI-TECH Software Omniscient Code Generator (Lite mode) build 49521"
  4638  03C7  2BFD               	goto	l81
  4639                           opt subtitle "HI-TECH Software Omniscient Code Generator (Lite mode) build 49521"
  4640  03C8                     l99:	
  4641                           opt subtitle "HI-TECH Software Omniscient Code Generator (Lite mode) build 49521"
  4642                           
  4643  03C8                     l97:	
  4644                           opt subtitle "HI-TECH Software Omniscient Code Generator (Lite mode) build 49521"
  4645  03C8  1906               	btfsc	(6),2	;volatile
  4646  03C9  2BCB               	goto	u2441
  4647  03CA  2BCC               	goto	u2440
  4648  03CB                     u2441:
  4649  03CB  2BBC               	goto	l2620
  4650  03CC                     u2440:
  4651  03CC  2BCD               	goto	l2624
  4652                           opt subtitle "HI-TECH Software Omniscient Code Generator (Lite mode) build 49521"
  4653  03CD                     l100:	
  4654                           opt subtitle "HI-TECH Software Omniscient Code Generator (Lite mode) build 49521"
  4655                           
  4656  03CD                     l2624:	
  4657                           opt subtitle "HI-TECH Software Omniscient Code Generator (Lite mode) build 49521"
  4658                           
  4659  03CD  3001               	movlw	(01h)
  4660  03CE  00C8               	movwf	(??_dhtlib_read+0)+0
  4661  03CF  0A4B               	incf	(dhtlib_read@bcount),w
  4662  03D0  2BD3               	goto	u2454
  4663  03D1                     u2455:
  4664  03D1  1003               	clrc
  4665  03D2  0DC8               	rlf	(??_dhtlib_read+0)+0,f
  4666  03D3                     u2454:
  4667  03D3  3EFF               	addlw	-1
  4668  03D4  1D03               	skipz
  4669  03D5  2BD1               	goto	u2455
  4670  03D6  0848               	movf	0+(??_dhtlib_read+0)+0,w
  4671  03D7  00C9               	movwf	(??_dhtlib_read+1)+0
  4672  03D8  084A               	movf	(dhtlib_read@aindex),w
  4673  03D9  3E26               	addlw	_bits&0ffh
  4674  03DA  0084               	movwf	fsr0
  4675  03DB  0849               	movf	(??_dhtlib_read+1)+0,w
  4676  03DC  1383               	bcf	status, 7	;select IRP bank0
  4677  03DD  0480               	iorwf	indf,f
  4678                           opt subtitle "HI-TECH Software Omniscient Code Generator (Lite mode) build 49521"
  4679                           
  4680  03DE                     l2626:	
  4681                           opt subtitle "HI-TECH Software Omniscient Code Generator (Lite mode) build 49521"
  4682  03DE  08CB               	movf	(dhtlib_read@bcount),f
  4683  03DF  1D03               	skipz
  4684  03E0  2BE2               	goto	u2461
  4685  03E1  2BE3               	goto	u2460
  4686  03E2                     u2461:
  4687  03E2  2BEC               	goto	l2632
  4688  03E3                     u2460:
  4689                           opt subtitle "HI-TECH Software Omniscient Code Generator (Lite mode) build 49521"
  4690                           
  4691  03E3                     l2628:	
  4692                           opt subtitle "HI-TECH Software Omniscient Code Generator (Lite mode) build 49521"
  4693  03E3  3007               	movlw	(07h)
  4694  03E4  00C8               	movwf	(??_dhtlib_read+0)+0
  4695  03E5  0848               	movf	(??_dhtlib_read+0)+0,w
  4696  03E6  00CB               	movwf	(dhtlib_read@bcount)
  4697                           opt subtitle "HI-TECH Software Omniscient Code Generator (Lite mode) build 49521"
  4698                           
  4699  03E7                     l2630:	
  4700                           opt subtitle "HI-TECH Software Omniscient Code Generator (Lite mode) build 49521"
  4701  03E7  3001               	movlw	(01h)
  4702  03E8  00C8               	movwf	(??_dhtlib_read+0)+0
  4703  03E9  0848               	movf	(??_dhtlib_read+0)+0,w
  4704  03EA  07CA               	addwf	(dhtlib_read@aindex),f
  4705                           opt subtitle "HI-TECH Software Omniscient Code Generator (Lite mode) build 49521"
  4706                           
  4707  03EB  2BEF               	goto	l96
  4708                           opt subtitle "HI-TECH Software Omniscient Code Generator (Lite mode) build 49521"
  4709  03EC                     l101:	
  4710                           opt subtitle "HI-TECH Software Omniscient Code Generator (Lite mode) build 49521"
  4711                           
  4712  03EC                     l2632:	
  4713                           opt subtitle "HI-TECH Software Omniscient Code Generator (Lite mode) build 49521"
  4714  03EC  3001               	movlw	low(01h)
  4715  03ED  02CB               	subwf	(dhtlib_read@bcount),f
  4716  03EE  2BEF               	goto	l96
  4717                           opt subtitle "HI-TECH Software Omniscient Code Generator (Lite mode) build 49521"
  4718                           
  4719  03EF                     l102:	
  4720                           opt subtitle "HI-TECH Software Omniscient Code Generator (Lite mode) build 49521"
  4721                           
  4722  03EF                     l96:	
  4723  03EF  3001               	movlw	(01h)
  4724  03F0  00C8               	movwf	(??_dhtlib_read+0)+0
  4725  03F1  0848               	movf	(??_dhtlib_read+0)+0,w
  4726  03F2  07CD               	addwf	(dhtlib_read@i),f
  4727                           opt subtitle "HI-TECH Software Omniscient Code Generator (Lite mode) build 49521"
  4728  03F3                     l2634:	
  4729  03F3  3028               	movlw	(028h)
  4730  03F4  024D               	subwf	(dhtlib_read@i),w
  4731  03F5  1C03               	skipc
  4732  03F6  2BF8               	goto	u2471
  4733  03F7  2BF9               	goto	u2470
  4734  03F8                     u2471:
  4735  03F8  2B88               	goto	l87
  4736  03F9                     u2470:
  4737                           opt subtitle "HI-TECH Software Omniscient Code Generator (Lite mode) build 49521"
  4738  03F9                     l88:	
  4739                           opt subtitle "HI-TECH Software Omniscient Code Generator (Lite mode) build 49521"
  4740                           
  4741                           opt pagewidth 120
  4742                           
  4743  03F9  178B               	bsf	(95/8),(95)&7	;volatile
  4744                           opt subtitle "HI-TECH Software Omniscient Code Generator (Lite mode) build 49521"
  4745                           
  4746  03FA                     l2636:	
  4747                           opt subtitle "HI-TECH Software Omniscient Code Generator (Lite mode) build 49521"
  4748  03FA  3000               	movlw	(0)
  4749  03FB  2C00               	goto	l103
  4750                           opt subtitle "HI-TECH Software Omniscient Code Generator (Lite mode) build 49521"
  4751  03FC                     l2638:	
  4752  03FC  2C00               	goto	l103
  4753                           opt subtitle "HI-TECH Software Omniscient Code Generator (Lite mode) build 49521"
  4754                           
  4755                           opt pagewidth 120
  4756  03FD                     l81:	
  4757                           opt subtitle "HI-TECH Software Omniscient Code Generator (Lite mode) build 49521"
  4758                           
  4759  03FD  178B               	bsf	(95/8),(95)&7	;volatile
  4760                           opt subtitle "HI-TECH Software Omniscient Code Generator (Lite mode) build 49521"
  4761                           
  4762  03FE                     l2640:	
  4763                           opt subtitle "HI-TECH Software Omniscient Code Generator (Lite mode) build 49521"
  4764  03FE  3001               	movlw	(01h)
  4765  03FF  2C00               	goto	l103
  4766                           opt subtitle "HI-TECH Software Omniscient Code Generator (Lite mode) build 49521"
  4767  0400                     l2642:	
  4768                           opt subtitle "HI-TECH Software Omniscient Code Generator (Lite mode) build 49521"
  4769                           
  4770  0400                     l103:	
  4771  0400  0008               	return
  4772                           opt subtitle "HI-TECH Software Omniscient Code Generator (Lite mode) build 49521"
  4773                           
  4774  0401                     	__end_of_dhtlib_read:
  4775                           opt subtitle "HI-TECH Software Omniscient Code Generator (Lite mode) build 49521"
  4776                           
  4777                           opt pagewidth 120
  4778                           
  4779                           	opt lm
  4780                           
  4781                           	processor	16F88
  4782                           clrc	macro
  4783                           	bcf	3,0
  4784                           	endm
  4785                           clrz	macro
  4786                           	bcf	3,2
  4787                           	endm
  4788                           setc	macro
  4789                           	bsf	3,0
  4790                           	endm
  4791                           setz	macro
  4792                           	bsf	3,2
  4793                           	endm
  4794                           skipc	macro
  4795                           	btfss	3,0
  4796                           	endm
  4797                           skipz	macro
  4798                           	btfss	3,2
  4799                           	endm
  4800                           skipnc	macro
  4801                           	btfsc	3,0
  4802                           	endm
  4803                           skipnz	macro
  4804                           	btfsc	3,2
  4805                           	endm
  4806                           indf	equ	0
  4807                           indf0	equ	0
  4808                           pc	equ	2
  4809  0FE3                     __ptext894:	;psect for function _dhtlib_start
  4810                           opt subtitle "HI-TECH Software Omniscient Code Generator (Lite mode) build 49521"
  4811                           
  4812                           opt pagewidth 120
  4813                           
  4814  001D                     	__size_of_dhtlib_start	equ	__end_of_dhtlib_start-_dhtlib_start
  4815                           opt subtitle "HI-TECH Software Omniscient Code Generator (Lite mode) build 49521"
  4816  0FE3                     _dhtlib_start:	
  4817                           opt subtitle "HI-TECH Software Omniscient Code Generator (Lite mode) build 49521"
  4818                           
  4819                           opt pagewidth 120
  4820                           
  4821  0FE3                     l2644:	
  4822                           opt subtitle "HI-TECH Software Omniscient Code Generator (Lite mode) build 49521"
  4823  0FE3  1683               	bsf	status, 5	;RP0=1, select bank1
  4824  0FE4  1303               	bcf	status, 6	;RP1=0, select bank1
  4825  0FE5  1106               	bcf	(134)^080h,2	;volatile
  4826                           opt subtitle "HI-TECH Software Omniscient Code Generator (Lite mode) build 49521"
  4827                           
  4828  0FE6  1283               	bcf	status, 5	;RP0=0, select bank0
  4829  0FE7  1303               	bcf	status, 6	;RP1=0, select bank0
  4830  0FE8  1106               	bcf	(6),2	;volatile
  4831  0FE9  1106               	bcf	(6),2	;volatile
  4832                           opt subtitle "HI-TECH Software Omniscient Code Generator (Lite mode) build 49521"
  4833                           
  4834  0FEA                     l2646:	
  4835                           opt subtitle "HI-TECH Software Omniscient Code Generator (Lite mode) build 49521"
  4836                           
  4837  0FEA  3034               movlw	52
  4838  0FEB  00F5               movwf	((??_dhtlib_start+0)+0+1),f
  4839  0FEC  30F1               	movlw	241
  4840  0FED  00F4               movwf	((??_dhtlib_start+0)+0),f
  4841  0FEE                     u2987:
  4842  0FEE  0BF4               	decfsz	((??_dhtlib_start+0)+0),f
  4843  0FEF  2FEE               	goto	u2987
  4844  0FF0  0BF5               	decfsz	((??_dhtlib_start+0)+0+1),f
  4845  0FF1  2FEE               	goto	u2987
  4846  0FF2  2FF3               	nop2
  4847                           opt subtitle "HI-TECH Software Omniscient Code Generator (Lite mode) build 49521"
  4848                           
  4849                           opt pagewidth 120
  4850                           
  4851  0FF3                     l2648:	
  4852                           opt subtitle "HI-TECH Software Omniscient Code Generator (Lite mode) build 49521"
  4853  0FF3  1283               	bcf	status, 5	;RP0=0, select bank0
  4854  0FF4  1303               	bcf	status, 6	;RP1=0, select bank0
  4855  0FF5  1506               	bsf	(6),2	;volatile
  4856                           opt subtitle "HI-TECH Software Omniscient Code Generator (Lite mode) build 49521"
  4857  0FF6                     l2650:	
  4858  0FF6  1506               	bsf	(6),2	;volatile
  4859                           opt subtitle "HI-TECH Software Omniscient Code Generator (Lite mode) build 49521"
  4860                           
  4861  0FF7                     l2652:	
  4862                           opt subtitle "HI-TECH Software Omniscient Code Generator (Lite mode) build 49521"
  4863  0FF7  1683               	bsf	status, 5	;RP0=1, select bank1
  4864  0FF8  1303               	bcf	status, 6	;RP1=0, select bank1
  4865  0FF9  1506               	bsf	(134)^080h,2	;volatile
  4866                           opt subtitle "HI-TECH Software Omniscient Code Generator (Lite mode) build 49521"
  4867                           
  4868                           opt pagewidth 120
  4869  0FFA  3027               movlw	39
  4870  0FFB  00F4               movwf	(??_dhtlib_start+0)+0,f
  4871  0FFC                     u2997:
  4872  0FFC  0BF4               decfsz	(??_dhtlib_start+0)+0,f
  4873  0FFD  2FFC               	goto	u2997
  4874  0FFE  2FFF               	nop2	;nop
  4875                           opt subtitle "HI-TECH Software Omniscient Code Generator (Lite mode) build 49521"
  4876                           
  4877                           opt pagewidth 120
  4878                           
  4879  0FFF                     l124:	
  4880  0FFF  0008               	return
  4881                           opt subtitle "HI-TECH Software Omniscient Code Generator (Lite mode) build 49521"
  4882                           
  4883  1000                     	__end_of_dhtlib_start:
  4884                           opt subtitle "HI-TECH Software Omniscient Code Generator (Lite mode) build 49521"
  4885                           
  4886                           opt pagewidth 120
  4887                           
  4888                           	opt lm
  4889                           
  4890                           	processor	16F88
  4891                           clrc	macro
  4892                           	bcf	3,0
  4893                           	endm
  4894                           clrz	macro
  4895                           	bcf	3,2
  4896                           	endm
  4897                           setc	macro
  4898                           	bsf	3,0
  4899                           	endm
  4900                           setz	macro
  4901                           	bsf	3,2
  4902                           	endm
  4903                           skipc	macro
  4904                           	btfss	3,0
  4905                           	endm
  4906                           skipz	macro
  4907                           	btfss	3,2
  4908                           	endm
  4909                           skipnc	macro
  4910                           	btfsc	3,0
  4911                           	endm
  4912                           skipnz	macro
  4913                           	btfsc	3,2
  4914                           	endm
  4915                           indf	equ	0
  4916                           indf0	equ	0
  4917                           pc	equ	2
  4918  04CF                     __ptext895:	;psect for function _tick_read_internal
  4919                           opt subtitle "HI-TECH Software Omniscient Code Generator (Lite mode) build 49521"
  4920                           
  4921                           opt pagewidth 120
  4922                           
  4923  0021                     	__size_of_tick_read_internal	equ	__end_of_tick_read_internal-_tick_read_internal
  4924                           opt subtitle "HI-TECH Software Omniscient Code Generator (Lite mode) build 49521"
  4925  04CF                     _tick_read_internal:	
  4926                           opt subtitle "HI-TECH Software Omniscient Code Generator (Lite mode) build 49521"
  4927                           
  4928                           opt pagewidth 120
  4929                           
  4930                           	opt lm
  4931  04CF                     l155:	
  4932                           opt subtitle "HI-TECH Software Omniscient Code Generator (Lite mode) build 49521"
  4933                           
  4934  04CF  1683               	bsf	status, 5	;RP0=1, select bank1
  4935  04D0  1303               	bcf	status, 6	;RP1=0, select bank1
  4936  04D1  140C               	bsf	(140)^080h,0	;volatile
  4937                           opt subtitle "HI-TECH Software Omniscient Code Generator (Lite mode) build 49521"
  4938                           
  4939  04D2  0000               nop ;# 
  4940                           opt subtitle "HI-TECH Software Omniscient Code Generator (Lite mode) build 49521"
  4941                           
  4942                           opt pagewidth 120
  4943  04D3  1683               	bsf	status, 5	;RP0=1, select bank1
  4944  04D4  1303               	bcf	status, 6	;RP1=0, select bank1
  4945  04D5  100C               	bcf	(140)^080h,0	;volatile
  4946                           opt subtitle "HI-TECH Software Omniscient Code Generator (Lite mode) build 49521"
  4947                           
  4948  04D6                     l2690:	
  4949                           opt subtitle "HI-TECH Software Omniscient Code Generator (Lite mode) build 49521"
  4950  04D6  1283               	bcf	status, 5	;RP0=0, select bank0
  4951  04D7  1303               	bcf	status, 6	;RP1=0, select bank0
  4952  04D8  080E               	movf	(14),w	;volatile
  4953  04D9  00F4               	movwf	(??_tick_read_internal+0)+0
  4954  04DA  0874               	movf	(??_tick_read_internal+0)+0,w
  4955  04DB  00A0               	movwf	(_tickbuffer)
  4956                           opt subtitle "HI-TECH Software Omniscient Code Generator (Lite mode) build 49521"
  4957                           
  4958  04DC  080F               	movf	(15),w	;volatile
  4959  04DD  00F4               	movwf	(??_tick_read_internal+0)+0
  4960  04DE  0874               	movf	(??_tick_read_internal+0)+0,w
  4961  04DF  00A1               	movwf	0+(_tickbuffer)+01h
  4962                           opt subtitle "HI-TECH Software Omniscient Code Generator (Lite mode) build 49521"
  4963                           
  4964  04E0  0879               	movf	(_tickcnt+3),w	;volatile
  4965  04E1  00A5               	movwf	3+(_tickbuffer)+02h
  4966  04E2  0878               	movf	(_tickcnt+2),w	;volatile
  4967  04E3  00A4               	movwf	2+(_tickbuffer)+02h
  4968  04E4  0877               	movf	(_tickcnt+1),w	;volatile
  4969  04E5  00A3               	movwf	1+(_tickbuffer)+02h
  4970  04E6  0876               	movf	(_tickcnt),w	;volatile
  4971  04E7  00A2               	movwf	0+(_tickbuffer)+02h
  4972                           opt subtitle "HI-TECH Software Omniscient Code Generator (Lite mode) build 49521"
  4973                           
  4974                           opt pagewidth 120
  4975  04E8                     l2692:	
  4976                           opt subtitle "HI-TECH Software Omniscient Code Generator (Lite mode) build 49521"
  4977  04E8  180C               	btfsc	(12),0	;volatile
  4978  04E9  2CEB               	goto	u2521
  4979  04EA  2CEC               	goto	u2520
  4980  04EB                     u2521:
  4981  04EB  2CCF               	goto	l155
  4982  04EC                     u2520:
  4983                           opt subtitle "HI-TECH Software Omniscient Code Generator (Lite mode) build 49521"
  4984  04EC                     l156:	
  4985                           opt subtitle "HI-TECH Software Omniscient Code Generator (Lite mode) build 49521"
  4986                           
  4987  04EC  1683               	bsf	status, 5	;RP0=1, select bank1
  4988  04ED  1303               	bcf	status, 6	;RP1=0, select bank1
  4989  04EE  140C               	bsf	(140)^080h,0	;volatile
  4990                           opt subtitle "HI-TECH Software Omniscient Code Generator (Lite mode) build 49521"
  4991                           
  4992  04EF                     l157:	
  4993  04EF  0008               	return
  4994                           opt subtitle "HI-TECH Software Omniscient Code Generator (Lite mode) build 49521"
  4995                           
  4996  04F0                     	__end_of_tick_read_internal:
  4997                           opt subtitle "HI-TECH Software Omniscient Code Generator (Lite mode) build 49521"
  4998                           
  4999                           opt pagewidth 120
  5000                           
  5001                           	opt lm
  5002                           
  5003                           	processor	16F88
  5004                           clrc	macro
  5005                           	bcf	3,0
  5006                           	endm
  5007                           clrz	macro
  5008                           	bcf	3,2
  5009                           	endm
  5010                           setc	macro
  5011                           	bsf	3,0
  5012                           	endm
  5013                           setz	macro
  5014                           	bsf	3,2
  5015                           	endm
  5016                           skipc	macro
  5017                           	btfss	3,0
  5018                           	endm
  5019                           skipz	macro
  5020                           	btfss	3,2
  5021                           	endm
  5022                           skipnc	macro
  5023                           	btfsc	3,0
  5024                           	endm
  5025                           skipnz	macro
  5026                           	btfsc	3,2
  5027                           	endm
  5028                           indf	equ	0
  5029                           indf0	equ	0
  5030                           pc	equ	2
  5031                           pcl	equ	2
  5032                           status	equ	3
  5033                           fsr	equ	4
  5034  079F                     __ptext896:	;psect for function _lcd_ioinit
  5035                           opt subtitle "HI-TECH Software Omniscient Code Generator (Lite mode) build 49521"
  5036                           
  5037                           opt pagewidth 120
  5038                           
  5039  002B                     	__size_of_lcd_ioinit	equ	__end_of_lcd_ioinit-_lcd_ioinit
  5040                           opt subtitle "HI-TECH Software Omniscient Code Generator (Lite mode) build 49521"
  5041  079F                     _lcd_ioinit:	
  5042                           opt subtitle "HI-TECH Software Omniscient Code Generator (Lite mode) build 49521"
  5043                           
  5044                           opt pagewidth 120
  5045                           
  5046  079F                     l2694:	
  5047                           opt subtitle "HI-TECH Software Omniscient Code Generator (Lite mode) build 49521"
  5048  079F  1283               	bcf	status, 5	;RP0=0, select bank0
  5049  07A0  1303               	bcf	status, 6	;RP1=0, select bank0
  5050  07A1  01C9               	clrf	(lcd_ioinit@i)
  5051                           opt subtitle "HI-TECH Software Omniscient Code Generator (Lite mode) build 49521"
  5052                           
  5053  07A2  1683               	bsf	status, 5	;RP0=1, select bank1
  5054  07A3  1303               	bcf	status, 6	;RP1=0, select bank1
  5055  07A4  1006               	bcf	(134)^080h,0	;volatile
  5056                           opt subtitle "HI-TECH Software Omniscient Code Generator (Lite mode) build 49521"
  5057                           
  5058  07A5  1086               	bcf	(134)^080h,1	;volatile
  5059                           opt subtitle "HI-TECH Software Omniscient Code Generator (Lite mode) build 49521"
  5060                           
  5061  07A6  1005               	bcf	(133)^080h,0	;volatile
  5062                           opt subtitle "HI-TECH Software Omniscient Code Generator (Lite mode) build 49521"
  5063                           
  5064  07A7  1085               	bcf	(133)^080h,1	;volatile
  5065                           opt subtitle "HI-TECH Software Omniscient Code Generator (Lite mode) build 49521"
  5066                           
  5067  07A8  1105               	bcf	(133)^080h,2	;volatile
  5068                           opt subtitle "HI-TECH Software Omniscient Code Generator (Lite mode) build 49521"
  5069                           
  5070  07A9  1185               	bcf	(133)^080h,3	;volatile
  5071                           opt subtitle "HI-TECH Software Omniscient Code Generator (Lite mode) build 49521"
  5072                           
  5073  07AA  1283               	bcf	status, 5	;RP0=0, select bank0
  5074  07AB  1303               	bcf	status, 6	;RP1=0, select bank0
  5075  07AC  01C9               	clrf	(lcd_ioinit@i)
  5076                           opt subtitle "HI-TECH Software Omniscient Code Generator (Lite mode) build 49521"
  5077  07AD                     l2696:	
  5078  07AD  300B               	movlw	(0Bh)
  5079  07AE  0249               	subwf	(lcd_ioinit@i),w
  5080  07AF  1C03               	skipc
  5081  07B0  2FB2               	goto	u2531
  5082  07B1  2FB3               	goto	u2530
  5083  07B2                     u2531:
  5084  07B2  2FB5               	goto	l2700
  5085  07B3                     u2530:
  5086  07B3  2FC7               	goto	l2706
  5087                           opt subtitle "HI-TECH Software Omniscient Code Generator (Lite mode) build 49521"
  5088  07B4                     l2698:	
  5089  07B4  2FC7               	goto	l2706
  5090                           opt subtitle "HI-TECH Software Omniscient Code Generator (Lite mode) build 49521"
  5091                           
  5092  07B5                     l256:	
  5093                           opt subtitle "HI-TECH Software Omniscient Code Generator (Lite mode) build 49521"
  5094  07B5                     l2700:	
  5095                           opt subtitle "HI-TECH Software Omniscient Code Generator (Lite mode) build 49521"
  5096  07B5  01F4               	clrf	(?_lcd_ioset)
  5097  07B6  0849               	movf	(lcd_ioinit@i),w
  5098  07B7  118A  25F8  118A   	fcall	_lcd_ioset
  5099                           opt subtitle "HI-TECH Software Omniscient Code Generator (Lite mode) build 49521"
  5100                           
  5101  07BA                     l2702:	
  5102  07BA  3001               	movlw	(01h)
  5103  07BB  1283               	bcf	status, 5	;RP0=0, select bank0
  5104  07BC  1303               	bcf	status, 6	;RP1=0, select bank0
  5105  07BD  00C8               	movwf	(??_lcd_ioinit+0)+0
  5106  07BE  0848               	movf	(??_lcd_ioinit+0)+0,w
  5107  07BF  07C9               	addwf	(lcd_ioinit@i),f
  5108                           opt subtitle "HI-TECH Software Omniscient Code Generator (Lite mode) build 49521"
  5109  07C0                     l2704:	
  5110  07C0  300B               	movlw	(0Bh)
  5111  07C1  0249               	subwf	(lcd_ioinit@i),w
  5112  07C2  1C03               	skipc
  5113  07C3  2FC5               	goto	u2541
  5114  07C4  2FC6               	goto	u2540
  5115  07C5                     u2541:
  5116  07C5  2FB5               	goto	l2700
  5117  07C6                     u2540:
  5118  07C6  2FC7               	goto	l2706
  5119                           opt subtitle "HI-TECH Software Omniscient Code Generator (Lite mode) build 49521"
  5120  07C7                     l257:	
  5121                           opt subtitle "HI-TECH Software Omniscient Code Generator (Lite mode) build 49521"
  5122                           
  5123  07C7                     l2706:	
  5124                           opt subtitle "HI-TECH Software Omniscient Code Generator (Lite mode) build 49521"
  5125  07C7  3004               	movlw	(04h)
  5126  07C8  2FC9               	goto	l258
  5127                           opt subtitle "HI-TECH Software Omniscient Code Generator (Lite mode) build 49521"
  5128  07C9                     l2708:	
  5129                           opt subtitle "HI-TECH Software Omniscient Code Generator (Lite mode) build 49521"
  5130                           
  5131  07C9                     l258:	
  5132  07C9  0008               	return
  5133                           opt subtitle "HI-TECH Software Omniscient Code Generator (Lite mode) build 49521"
  5134                           
  5135  07CA                     	__end_of_lcd_ioinit:
  5136                           opt subtitle "HI-TECH Software Omniscient Code Generator (Lite mode) build 49521"
  5137                           
  5138                           opt pagewidth 120
  5139                           
  5140                           	opt lm
  5141                           
  5142                           	processor	16F88
  5143                           clrc	macro
  5144                           	bcf	3,0
  5145                           	endm
  5146                           clrz	macro
  5147                           	bcf	3,2
  5148                           	endm
  5149                           setc	macro
  5150                           	bsf	3,0
  5151                           	endm
  5152                           setz	macro
  5153                           	bsf	3,2
  5154                           	endm
  5155                           skipc	macro
  5156                           	btfss	3,0
  5157                           	endm
  5158                           skipz	macro
  5159                           	btfss	3,2
  5160                           	endm
  5161                           skipnc	macro
  5162                           	btfsc	3,0
  5163                           	endm
  5164                           skipnz	macro
  5165                           	btfsc	3,2
  5166                           	endm
  5167                           indf	equ	0
  5168                           indf0	equ	0
  5169                           pc	equ	2
  5170                           pcl	equ	2
  5171                           status	equ	3
  5172                           fsr	equ	4
  5173                           fsr0	equ	4
  5174                           c	equ	1
  5175                           z	equ	0
  5176                           pclath	equ	10
  5177                           # 46 "C:\Program Files (x86)\Microchip\xc8\v1.12\include\pic16f88.h"
  5178                           INDF equ 00h ;# 
  5179                           # 52 "C:\Program Files (x86)\Microchip\xc8\v1.12\include\pic16f88.h"
  5180                           TMR0 equ 01h ;# 
  5181                           # 58 "C:\Program Files (x86)\Microchip\xc8\v1.12\include\pic16f88.h"
  5182                           PCL equ 02h ;# 
  5183                           # 64 "C:\Program Files (x86)\Microchip\xc8\v1.12\include\pic16f88.h"
  5184                           STATUS equ 03h ;# 
  5185                           # 151 "C:\Program Files (x86)\Microchip\xc8\v1.12\include\pic16f88.h"
  5186                           FSR equ 04h ;# 
  5187  06CF                     __ptext897:	;psect for function _lcd_send
  5188                           opt subtitle "HI-TECH Software Omniscient Code Generator (Lite mode) build 49521"
  5189                           
  5190                           opt pagewidth 120
  5191                           
  5192  003B                     	__size_of_lcd_send	equ	__end_of_lcd_send-_lcd_send
  5193                           opt subtitle "HI-TECH Software Omniscient Code Generator (Lite mode) build 49521"
  5194  06CF                     _lcd_send:	
  5195                           opt subtitle "HI-TECH Software Omniscient Code Generator (Lite mode) build 49521"
  5196                           
  5197                           opt pagewidth 120
  5198                           
  5199  06CF  1283               	bcf	status, 5	;RP0=0, select bank0
  5200  06D0  1303               	bcf	status, 6	;RP1=0, select bank0
  5201  06D1  00CE               	movwf	(lcd_send@data)
  5202                           opt subtitle "HI-TECH Software Omniscient Code Generator (Lite mode) build 49521"
  5203  06D2                     l2726:	
  5204                           opt subtitle "HI-TECH Software Omniscient Code Generator (Lite mode) build 49521"
  5205  06D2  084C               	movf	(lcd_send@rs),w
  5206  06D3  1D03               	skipz
  5207  06D4  2ED6               	goto	u2580
  5208  06D5  2EDD               	goto	l2730
  5209  06D6                     u2580:
  5210                           opt subtitle "HI-TECH Software Omniscient Code Generator (Lite mode) build 49521"
  5211                           
  5212  06D6                     l2728:	
  5213                           opt subtitle "HI-TECH Software Omniscient Code Generator (Lite mode) build 49521"
  5214  06D6  01F4               	clrf	(?_lcd_ioset)
  5215  06D7  0AF4               	incf	(?_lcd_ioset),f
  5216  06D8  3009               	movlw	(09h)
  5217  06D9  118A  25F8  118A   	fcall	_lcd_ioset
  5218  06DC  2EE2               	goto	l227
  5219                           opt subtitle "HI-TECH Software Omniscient Code Generator (Lite mode) build 49521"
  5220                           
  5221  06DD                     l226:	
  5222                           opt subtitle "HI-TECH Software Omniscient Code Generator (Lite mode) build 49521"
  5223                           
  5224  06DD                     l2730:	
  5225                           opt subtitle "HI-TECH Software Omniscient Code Generator (Lite mode) build 49521"
  5226                           
  5227  06DD  01F4               	clrf	(?_lcd_ioset)
  5228  06DE  3009               	movlw	(09h)
  5229  06DF  118A  25F8  118A   	fcall	_lcd_ioset
  5230                           opt subtitle "HI-TECH Software Omniscient Code Generator (Lite mode) build 49521"
  5231  06E2                     l227:	
  5232                           opt subtitle "HI-TECH Software Omniscient Code Generator (Lite mode) build 49521"
  5233                           
  5234  06E2  01F4               	clrf	(?_lcd_ioset)
  5235  06E3  300A               	movlw	(0Ah)
  5236  06E4  118A  25F8  118A   	fcall	_lcd_ioset
  5237                           opt subtitle "HI-TECH Software Omniscient Code Generator (Lite mode) build 49521"
  5238                           
  5239  06E7                     l2732:	
  5240                           opt subtitle "HI-TECH Software Omniscient Code Generator (Lite mode) build 49521"
  5241  06E7  1283               	bcf	status, 5	;RP0=0, select bank0
  5242  06E8  1303               	bcf	status, 6	;RP1=0, select bank0
  5243  06E9  086F               	movf	(_iomode),w
  5244  06EA  3A04               	xorlw	04h
  5245  06EB  1D03               	skipz
  5246  06EC  2EEE               	goto	u2591
  5247  06ED  2EEF               	goto	u2590
  5248  06EE                     u2591:
  5249  06EE  2F02               	goto	l2736
  5250  06EF                     u2590:
  5251                           opt subtitle "HI-TECH Software Omniscient Code Generator (Lite mode) build 49521"
  5252                           
  5253  06EF                     l2734:	
  5254                           opt subtitle "HI-TECH Software Omniscient Code Generator (Lite mode) build 49521"
  5255  06EF  084E               	movf	(lcd_send@data),w
  5256  06F0  00CD               	movwf	(??_lcd_send+0)+0
  5257  06F1  3004               	movlw	04h
  5258  06F2                     u2605:
  5259  06F2  1003               	clrc
  5260  06F3  0CCD               	rrf	(??_lcd_send+0)+0,f
  5261  06F4  3EFF               	addlw	-1
  5262  06F5  1D03               	skipz
  5263  06F6  2EF2               	goto	u2605
  5264  06F7  084D               	movf	0+(??_lcd_send+0)+0,w
  5265  06F8  118A  2644  118A   	fcall	_lcd_iowrite4
  5266                           opt subtitle "HI-TECH Software Omniscient Code Generator (Lite mode) build 49521"
  5267                           
  5268  06FB  1283               	bcf	status, 5	;RP0=0, select bank0
  5269  06FC  1303               	bcf	status, 6	;RP1=0, select bank0
  5270  06FD  084E               	movf	(lcd_send@data),w
  5271  06FE  118A  2644  118A   	fcall	_lcd_iowrite4
  5272                           opt subtitle "HI-TECH Software Omniscient Code Generator (Lite mode) build 49521"
  5273                           
  5274  0701  2F09               	goto	l230
  5275                           opt subtitle "HI-TECH Software Omniscient Code Generator (Lite mode) build 49521"
  5276  0702                     l228:	
  5277                           opt subtitle "HI-TECH Software Omniscient Code Generator (Lite mode) build 49521"
  5278                           
  5279  0702                     l2736:	
  5280                           opt subtitle "HI-TECH Software Omniscient Code Generator (Lite mode) build 49521"
  5281  0702  1283               	bcf	status, 5	;RP0=0, select bank0
  5282  0703  1303               	bcf	status, 6	;RP1=0, select bank0
  5283  0704  084E               	movf	(lcd_send@data),w
  5284  0705  118A  2003  118A   	fcall	_lcd_iowrite8
  5285  0708  2F09               	goto	l230
  5286                           opt subtitle "HI-TECH Software Omniscient Code Generator (Lite mode) build 49521"
  5287                           
  5288  0709                     l229:	
  5289                           opt subtitle "HI-TECH Software Omniscient Code Generator (Lite mode) build 49521"
  5290                           
  5291  0709                     l230:	
  5292  0709  0008               	return
  5293                           opt subtitle "HI-TECH Software Omniscient Code Generator (Lite mode) build 49521"
  5294                           
  5295  070A                     	__end_of_lcd_send:
  5296                           opt subtitle "HI-TECH Software Omniscient Code Generator (Lite mode) build 49521"
  5297                           
  5298                           opt pagewidth 120
  5299                           
  5300                           	opt lm
  5301                           
  5302                           	processor	16F88
  5303                           clrc	macro
  5304                           	bcf	3,0
  5305                           	endm
  5306                           clrz	macro
  5307                           	bcf	3,2
  5308                           	endm
  5309                           setc	macro
  5310                           	bsf	3,0
  5311                           	endm
  5312                           setz	macro
  5313                           	bsf	3,2
  5314                           	endm
  5315                           skipc	macro
  5316                           	btfss	3,0
  5317                           	endm
  5318                           skipz	macro
  5319                           	btfss	3,2
  5320                           	endm
  5321                           skipnc	macro
  5322                           	btfsc	3,0
  5323                           	endm
  5324                           skipnz	macro
  5325                           	btfsc	3,2
  5326                           	endm
  5327                           indf	equ	0
  5328                           indf0	equ	0
  5329                           pc	equ	2
  5330                           pcl	equ	2
  5331                           status	equ	3
  5332  0644                     __ptext898:	;psect for function _lcd_iowrite4
  5333                           opt subtitle "HI-TECH Software Omniscient Code Generator (Lite mode) build 49521"
  5334                           
  5335                           opt pagewidth 120
  5336                           
  5337  0046                     	__size_of_lcd_iowrite4	equ	__end_of_lcd_iowrite4-_lcd_iowrite4
  5338                           opt subtitle "HI-TECH Software Omniscient Code Generator (Lite mode) build 49521"
  5339  0644                     _lcd_iowrite4:	
  5340                           opt subtitle "HI-TECH Software Omniscient Code Generator (Lite mode) build 49521"
  5341                           
  5342                           opt pagewidth 120
  5343                           
  5344  0644  1283               	bcf	status, 5	;RP0=0, select bank0
  5345  0645  1303               	bcf	status, 6	;RP1=0, select bank0
  5346  0646  00CA               	movwf	(lcd_iowrite4@data)
  5347                           opt subtitle "HI-TECH Software Omniscient Code Generator (Lite mode) build 49521"
  5348  0647                     l2710:	
  5349                           opt subtitle "HI-TECH Software Omniscient Code Generator (Lite mode) build 49521"
  5350                           
  5351  0647  3004               	movlw	(04h)
  5352  0648  00C8               	movwf	(??_lcd_iowrite4+0)+0
  5353  0649  0848               	movf	(??_lcd_iowrite4+0)+0,w
  5354  064A  00CB               	movwf	(lcd_iowrite4@i)
  5355  064B  3008               	movlw	(08h)
  5356  064C  024B               	subwf	(lcd_iowrite4@i),w
  5357  064D  1C03               	skipc
  5358  064E  2E50               	goto	u2551
  5359  064F  2E51               	goto	u2550
  5360  0650                     u2551:
  5361  0650  2E53               	goto	l2714
  5362  0651                     u2550:
  5363  0651  2E77               	goto	l2720
  5364                           opt subtitle "HI-TECH Software Omniscient Code Generator (Lite mode) build 49521"
  5365  0652                     l2712:	
  5366  0652  2E77               	goto	l2720
  5367                           opt subtitle "HI-TECH Software Omniscient Code Generator (Lite mode) build 49521"
  5368                           
  5369  0653                     l273:	
  5370                           opt subtitle "HI-TECH Software Omniscient Code Generator (Lite mode) build 49521"
  5371  0653                     l2714:	
  5372                           opt subtitle "HI-TECH Software Omniscient Code Generator (Lite mode) build 49521"
  5373  0653  3001               	movlw	(01h)
  5374  0654  00C8               	movwf	(??_lcd_iowrite4+0)+0
  5375  0655  084B               	movf	(lcd_iowrite4@i),w
  5376  0656  3EFC               	addlw	-4
  5377  0657  3E01               	addlw	1
  5378  0658  2E5B               	goto	u2564
  5379  0659                     u2565:
  5380  0659  1003               	clrc
  5381  065A  0DC8               	rlf	(??_lcd_iowrite4+0)+0,f
  5382  065B                     u2564:
  5383  065B  3EFF               	addlw	-1
  5384  065C  1D03               	skipz
  5385  065D  2E59               	goto	u2565
  5386  065E  0848               	movf	0+(??_lcd_iowrite4+0)+0,w
  5387  065F  054A               	andwf	(lcd_iowrite4@data),w
  5388  0660  3000               	movlw	0
  5389  0661  1D03               	btfss	status,2
  5390  0662  3001               	movlw	1
  5391  0663  00C9               	movwf	(??_lcd_iowrite4+1)+0
  5392  0664  0849               	movf	(??_lcd_iowrite4+1)+0,w
  5393  0665  00F4               	movwf	(?_lcd_ioset)
  5394  0666  084B               	movf	(lcd_iowrite4@i),w
  5395  0667  118A  25F8  118A   	fcall	_lcd_ioset
  5396                           opt subtitle "HI-TECH Software Omniscient Code Generator (Lite mode) build 49521"
  5397                           
  5398  066A                     l2716:	
  5399  066A  3001               	movlw	(01h)
  5400  066B  1283               	bcf	status, 5	;RP0=0, select bank0
  5401  066C  1303               	bcf	status, 6	;RP1=0, select bank0
  5402  066D  00C8               	movwf	(??_lcd_iowrite4+0)+0
  5403  066E  0848               	movf	(??_lcd_iowrite4+0)+0,w
  5404  066F  07CB               	addwf	(lcd_iowrite4@i),f
  5405                           opt subtitle "HI-TECH Software Omniscient Code Generator (Lite mode) build 49521"
  5406  0670                     l2718:	
  5407  0670  3008               	movlw	(08h)
  5408  0671  024B               	subwf	(lcd_iowrite4@i),w
  5409  0672  1C03               	skipc
  5410  0673  2E75               	goto	u2571
  5411  0674  2E76               	goto	u2570
  5412  0675                     u2571:
  5413  0675  2E53               	goto	l2714
  5414  0676                     u2570:
  5415  0676  2E77               	goto	l2720
  5416                           opt subtitle "HI-TECH Software Omniscient Code Generator (Lite mode) build 49521"
  5417  0677                     l274:	
  5418                           opt subtitle "HI-TECH Software Omniscient Code Generator (Lite mode) build 49521"
  5419                           
  5420  0677                     l2720:	
  5421                           opt subtitle "HI-TECH Software Omniscient Code Generator (Lite mode) build 49521"
  5422  0677  01F4               	clrf	(?_lcd_ioset)
  5423  0678  0AF4               	incf	(?_lcd_ioset),f
  5424  0679  3008               	movlw	(08h)
  5425  067A  118A  25F8  118A   	fcall	_lcd_ioset
  5426                           opt subtitle "HI-TECH Software Omniscient Code Generator (Lite mode) build 49521"
  5427                           
  5428  067D                     l2722:	
  5429                           opt subtitle "HI-TECH Software Omniscient Code Generator (Lite mode) build 49521"
  5430                           
  5431  067D  3006               movlw	6
  5432  067E  1283               	bcf	status, 5	;RP0=0, select bank0
  5433  067F  1303               	bcf	status, 6	;RP1=0, select bank0
  5434  0680  00C8               movwf	(??_lcd_iowrite4+0)+0,f
  5435  0681                     u3007:
  5436  0681  0BC8               decfsz	(??_lcd_iowrite4+0)+0,f
  5437  0682  2E81               	goto	u3007
  5438  0683  0000               	nop
  5439                           opt subtitle "HI-TECH Software Omniscient Code Generator (Lite mode) build 49521"
  5440                           
  5441                           opt pagewidth 120
  5442                           
  5443  0684                     l2724:	
  5444                           opt subtitle "HI-TECH Software Omniscient Code Generator (Lite mode) build 49521"
  5445  0684  01F4               	clrf	(?_lcd_ioset)
  5446  0685  3008               	movlw	(08h)
  5447  0686  118A  25F8  118A   	fcall	_lcd_ioset
  5448                           opt subtitle "HI-TECH Software Omniscient Code Generator (Lite mode) build 49521"
  5449                           
  5450  0689                     l275:	
  5451  0689  0008               	return
  5452                           opt subtitle "HI-TECH Software Omniscient Code Generator (Lite mode) build 49521"
  5453                           
  5454  068A                     	__end_of_lcd_iowrite4:
  5455                           opt subtitle "HI-TECH Software Omniscient Code Generator (Lite mode) build 49521"
  5456                           
  5457                           opt pagewidth 120
  5458                           
  5459                           	opt lm
  5460                           
  5461                           	processor	16F88
  5462                           clrc	macro
  5463                           	bcf	3,0
  5464                           	endm
  5465                           clrz	macro
  5466                           	bcf	3,2
  5467                           	endm
  5468                           setc	macro
  5469                           	bsf	3,0
  5470                           	endm
  5471                           setz	macro
  5472                           	bsf	3,2
  5473                           	endm
  5474                           skipc	macro
  5475                           	btfss	3,0
  5476                           	endm
  5477                           skipz	macro
  5478                           	btfss	3,2
  5479                           	endm
  5480                           skipnc	macro
  5481                           	btfsc	3,0
  5482                           	endm
  5483                           skipnz	macro
  5484                           	btfsc	3,2
  5485                           	endm
  5486                           indf	equ	0
  5487                           indf0	equ	0
  5488                           pc	equ	2
  5489                           pcl	equ	2
  5490                           status	equ	3
  5491                           fsr	equ	4
  5492  05F8                     __ptext899:	;psect for function _lcd_ioset
  5493                           opt subtitle "HI-TECH Software Omniscient Code Generator (Lite mode) build 49521"
  5494                           
  5495                           opt pagewidth 120
  5496                           
  5497  004C                     	__size_of_lcd_ioset	equ	__end_of_lcd_ioset-_lcd_ioset
  5498                           opt subtitle "HI-TECH Software Omniscient Code Generator (Lite mode) build 49521"
  5499  05F8                     _lcd_ioset:	
  5500                           opt subtitle "HI-TECH Software Omniscient Code Generator (Lite mode) build 49521"
  5501                           
  5502                           opt pagewidth 120
  5503  05F8  00F5               	movwf	(lcd_ioset@pin)
  5504                           opt subtitle "HI-TECH Software Omniscient Code Generator (Lite mode) build 49521"
  5505                           
  5506  05F9                     l2782:	
  5507                           opt subtitle "HI-TECH Software Omniscient Code Generator (Lite mode) build 49521"
  5508  05F9  2E2C               	goto	l2798
  5509                           opt subtitle "HI-TECH Software Omniscient Code Generator (Lite mode) build 49521"
  5510                           
  5511                           opt pagewidth 120
  5512  05FA                     l262:	
  5513                           opt subtitle "HI-TECH Software Omniscient Code Generator (Lite mode) build 49521"
  5514                           
  5515  05FA                     l2784:	
  5516                           opt subtitle "HI-TECH Software Omniscient Code Generator (Lite mode) build 49521"
  5517  05FA  0874               	movf	(lcd_ioset@out),w
  5518  05FB  1283               	bcf	status, 5	;RP0=0, select bank0
  5519  05FC  1303               	bcf	status, 6	;RP1=0, select bank0
  5520  05FD  1D03               	skipz
  5521  05FE  1405               	bsf	(5),0	;volatile
  5522  05FF  1903               	skipnz
  5523  0600  1005               	bcf	(5),0	;volatile
  5524                           opt subtitle "HI-TECH Software Omniscient Code Generator (Lite mode) build 49521"
  5525                           
  5526  0601  2E43               	goto	l270
  5527                           opt subtitle "HI-TECH Software Omniscient Code Generator (Lite mode) build 49521"
  5528                           
  5529                           opt pagewidth 120
  5530  0602                     l264:	
  5531                           opt subtitle "HI-TECH Software Omniscient Code Generator (Lite mode) build 49521"
  5532                           
  5533  0602                     l2786:	
  5534                           opt subtitle "HI-TECH Software Omniscient Code Generator (Lite mode) build 49521"
  5535  0602  0874               	movf	(lcd_ioset@out),w
  5536  0603  1283               	bcf	status, 5	;RP0=0, select bank0
  5537  0604  1303               	bcf	status, 6	;RP1=0, select bank0
  5538  0605  1D03               	skipz
  5539  0606  1485               	bsf	(5),1	;volatile
  5540  0607  1903               	skipnz
  5541  0608  1085               	bcf	(5),1	;volatile
  5542                           opt subtitle "HI-TECH Software Omniscient Code Generator (Lite mode) build 49521"
  5543                           
  5544  0609  2E43               	goto	l270
  5545                           opt subtitle "HI-TECH Software Omniscient Code Generator (Lite mode) build 49521"
  5546                           
  5547                           opt pagewidth 120
  5548  060A                     l265:	
  5549                           opt subtitle "HI-TECH Software Omniscient Code Generator (Lite mode) build 49521"
  5550                           
  5551  060A                     l2788:	
  5552                           opt subtitle "HI-TECH Software Omniscient Code Generator (Lite mode) build 49521"
  5553  060A  0874               	movf	(lcd_ioset@out),w
  5554  060B  1283               	bcf	status, 5	;RP0=0, select bank0
  5555  060C  1303               	bcf	status, 6	;RP1=0, select bank0
  5556  060D  1D03               	skipz
  5557  060E  1505               	bsf	(5),2	;volatile
  5558  060F  1903               	skipnz
  5559  0610  1105               	bcf	(5),2	;volatile
  5560                           opt subtitle "HI-TECH Software Omniscient Code Generator (Lite mode) build 49521"
  5561                           
  5562  0611  2E43               	goto	l270
  5563                           opt subtitle "HI-TECH Software Omniscient Code Generator (Lite mode) build 49521"
  5564                           
  5565                           opt pagewidth 120
  5566  0612                     l266:	
  5567                           opt subtitle "HI-TECH Software Omniscient Code Generator (Lite mode) build 49521"
  5568                           
  5569  0612                     l2790:	
  5570                           opt subtitle "HI-TECH Software Omniscient Code Generator (Lite mode) build 49521"
  5571  0612  0874               	movf	(lcd_ioset@out),w
  5572  0613  1283               	bcf	status, 5	;RP0=0, select bank0
  5573  0614  1303               	bcf	status, 6	;RP1=0, select bank0
  5574  0615  1D03               	skipz
  5575  0616  1585               	bsf	(5),3	;volatile
  5576  0617  1903               	skipnz
  5577  0618  1185               	bcf	(5),3	;volatile
  5578                           opt subtitle "HI-TECH Software Omniscient Code Generator (Lite mode) build 49521"
  5579                           
  5580  0619  2E43               	goto	l270
  5581                           opt subtitle "HI-TECH Software Omniscient Code Generator (Lite mode) build 49521"
  5582                           
  5583                           opt pagewidth 120
  5584  061A                     l267:	
  5585                           opt subtitle "HI-TECH Software Omniscient Code Generator (Lite mode) build 49521"
  5586                           
  5587  061A                     l2792:	
  5588                           opt subtitle "HI-TECH Software Omniscient Code Generator (Lite mode) build 49521"
  5589  061A  0874               	movf	(lcd_ioset@out),w
  5590  061B  1283               	bcf	status, 5	;RP0=0, select bank0
  5591  061C  1303               	bcf	status, 6	;RP1=0, select bank0
  5592  061D  1D03               	skipz
  5593  061E  1486               	bsf	(6),1	;volatile
  5594  061F  1903               	skipnz
  5595  0620  1086               	bcf	(6),1	;volatile
  5596                           opt subtitle "HI-TECH Software Omniscient Code Generator (Lite mode) build 49521"
  5597                           
  5598  0621  2E43               	goto	l270
  5599                           opt subtitle "HI-TECH Software Omniscient Code Generator (Lite mode) build 49521"
  5600                           
  5601                           opt pagewidth 120
  5602  0622                     l268:	
  5603                           opt subtitle "HI-TECH Software Omniscient Code Generator (Lite mode) build 49521"
  5604                           
  5605  0622                     l2794:	
  5606                           opt subtitle "HI-TECH Software Omniscient Code Generator (Lite mode) build 49521"
  5607  0622  0874               	movf	(lcd_ioset@out),w
  5608  0623  1283               	bcf	status, 5	;RP0=0, select bank0
  5609  0624  1303               	bcf	status, 6	;RP1=0, select bank0
  5610  0625  1D03               	skipz
  5611  0626  1406               	bsf	(6),0	;volatile
  5612  0627  1903               	skipnz
  5613  0628  1006               	bcf	(6),0	;volatile
  5614                           opt subtitle "HI-TECH Software Omniscient Code Generator (Lite mode) build 49521"
  5615                           
  5616  0629  2E43               	goto	l270
  5617                           opt subtitle "HI-TECH Software Omniscient Code Generator (Lite mode) build 49521"
  5618                           
  5619                           opt pagewidth 120
  5620  062A                     l269:	
  5621                           opt subtitle "HI-TECH Software Omniscient Code Generator (Lite mode) build 49521"
  5622                           
  5623  062A  2E43               	goto	l270
  5624                           opt subtitle "HI-TECH Software Omniscient Code Generator (Lite mode) build 49521"
  5625                           
  5626  062B                     l2796:	
  5627                           opt subtitle "HI-TECH Software Omniscient Code Generator (Lite mode) build 49521"
  5628  062B  2E43               	goto	l270
  5629                           opt subtitle "HI-TECH Software Omniscient Code Generator (Lite mode) build 49521"
  5630                           
  5631  062C                     l261:	
  5632                           opt subtitle "HI-TECH Software Omniscient Code Generator (Lite mode) build 49521"
  5633  062C                     l2798:	
  5634  062C  0875               	movf	(lcd_ioset@pin),w
  5635                           opt subtitle "HI-TECH Software Omniscient Code Generator (Lite mode) build 49521"
  5636                           
  5637                           opt pagewidth 120
  5638                           
  5639                           	opt lm
  5640                           
  5641                           	processor	16F88
  5642                           clrc	macro
  5643                           	bcf	3,0
  5644                           	endm
  5645  062D  3A04               	xorlw	4^0	; case 4
  5646  062E  1903               	skipnz
  5647  062F  2DFA               	goto	l2784
  5648  0630  3A01               	xorlw	5^4	; case 5
  5649  0631  1903               	skipnz
  5650  0632  2E02               	goto	l2786
  5651  0633  3A03               	xorlw	6^5	; case 6
  5652  0634  1903               	skipnz
  5653  0635  2E0A               	goto	l2788
  5654  0636  3A01               	xorlw	7^6	; case 7
  5655  0637  1903               	skipnz
  5656  0638  2E12               	goto	l2790
  5657  0639  3A0F               	xorlw	8^7	; case 8
  5658  063A  1903               	skipnz
  5659  063B  2E22               	goto	l2794
  5660  063C  3A01               	xorlw	9^8	; case 9
  5661  063D  1903               	skipnz
  5662  063E  2E1A               	goto	l2792
  5663  063F  3A03               	xorlw	10^9	; case 10
  5664  0640  1903               	skipnz
  5665  0641  2E43               	goto	l270
  5666  0642  2E43               	goto	l270
  5667                           opt subtitle "HI-TECH Software Omniscient Code Generator (Lite mode) build 49521"
  5668                           
  5669                           opt pagewidth 120
  5670                           
  5671  0643                     l263:	
  5672                           opt subtitle "HI-TECH Software Omniscient Code Generator (Lite mode) build 49521"
  5673                           
  5674  0643                     l270:	
  5675  0643  0008               	return
  5676                           opt subtitle "HI-TECH Software Omniscient Code Generator (Lite mode) build 49521"
  5677                           
  5678  0644                     	__end_of_lcd_ioset:
  5679                           opt subtitle "HI-TECH Software Omniscient Code Generator (Lite mode) build 49521"
  5680                           
  5681                           opt pagewidth 120
  5682                           
  5683                           	opt lm
  5684                           
  5685                           	processor	16F88
  5686                           clrc	macro
  5687                           	bcf	3,0
  5688                           	endm
  5689                           clrz	macro
  5690                           	bcf	3,2
  5691                           	endm
  5692                           setc	macro
  5693                           	bsf	3,0
  5694                           	endm
  5695                           setz	macro
  5696                           	bsf	3,2
  5697                           	endm
  5698                           skipc	macro
  5699                           	btfss	3,0
  5700                           	endm
  5701                           skipz	macro
  5702                           	btfss	3,2
  5703                           	endm
  5704                           skipnc	macro
  5705                           	btfsc	3,0
  5706                           	endm
  5707                           skipnz	macro
  5708                           	btfsc	3,2
  5709                           	endm
  5710                           indf	equ	0
  5711                           indf0	equ	0
  5712                           pc	equ	2
  5713  0003                     __ptext900:	;psect for function _lcd_iowrite8
  5714                           opt subtitle "HI-TECH Software Omniscient Code Generator (Lite mode) build 49521"
  5715                           
  5716                           opt pagewidth 120
  5717                           
  5718  0001                     	__size_of_lcd_iowrite8	equ	__end_of_lcd_iowrite8-_lcd_iowrite8
  5719                           opt subtitle "HI-TECH Software Omniscient Code Generator (Lite mode) build 49521"
  5720  0003                     _lcd_iowrite8:	
  5721                           opt subtitle "HI-TECH Software Omniscient Code Generator (Lite mode) build 49521"
  5722                           
  5723                           opt pagewidth 120
  5724                           
  5725  0003                     l278:	
  5726  0003  0008               	return
  5727                           opt subtitle "HI-TECH Software Omniscient Code Generator (Lite mode) build 49521"
  5728                           
  5729  0004                     	__end_of_lcd_iowrite8:
  5730                           opt subtitle "HI-TECH Software Omniscient Code Generator (Lite mode) build 49521"
  5731                           
  5732                           opt pagewidth 120
  5733                           
  5734                           	opt lm
  5735                           
  5736                           	processor	16F88
  5737                           clrc	macro
  5738                           	bcf	3,0
  5739                           	endm
  5740                           clrz	macro
  5741                           	bcf	3,2
  5742                           	endm
  5743                           setc	macro
  5744                           	bsf	3,0
  5745                           	endm
  5746                           setz	macro
  5747                           	bsf	3,2
  5748                           	endm
  5749                           skipc	macro
  5750                           	btfss	3,0
  5751                           	endm
  5752                           skipz	macro
  5753                           	btfss	3,2
  5754                           	endm
  5755                           skipnc	macro
  5756                           	btfsc	3,0
  5757                           	endm
  5758                           skipnz	macro
  5759                           	btfsc	3,2
  5760                           	endm
  5761                           indf	equ	0
  5762                           indf0	equ	0
  5763                           pc	equ	2
  5764  0F8D                     __ptext901:	;psect for function _isdigit
  5765                           opt subtitle "HI-TECH Software Omniscient Code Generator (Lite mode) build 49521"
  5766                           
  5767                           opt pagewidth 120
  5768                           
  5769  0014                     	__size_of_isdigit	equ	__end_of_isdigit-_isdigit
  5770                           opt subtitle "HI-TECH Software Omniscient Code Generator (Lite mode) build 49521"
  5771  0F8D                     _isdigit:	
  5772                           opt subtitle "HI-TECH Software Omniscient Code Generator (Lite mode) build 49521"
  5773                           
  5774                           opt pagewidth 120
  5775  0F8D  00F5               	movwf	(isdigit@c)
  5776                           opt subtitle "HI-TECH Software Omniscient Code Generator (Lite mode) build 49521"
  5777                           
  5778  0F8E                     l2816:	
  5779  0F8E  01F4               	clrf	(_isdigit$587)
  5780                           opt subtitle "HI-TECH Software Omniscient Code Generator (Lite mode) build 49521"
  5781  0F8F                     l2818:	
  5782  0F8F  303A               	movlw	(03Ah)
  5783  0F90  0275               	subwf	(isdigit@c),w
  5784  0F91  1803               	skipnc
  5785  0F92  2F94               	goto	u2641
  5786  0F93  2F95               	goto	u2640
  5787  0F94                     u2641:
  5788  0F94  2F9E               	goto	l2824
  5789  0F95                     u2640:
  5790                           opt subtitle "HI-TECH Software Omniscient Code Generator (Lite mode) build 49521"
  5791  0F95                     l2820:	
  5792  0F95  3030               	movlw	(030h)
  5793  0F96  0275               	subwf	(isdigit@c),w
  5794  0F97  1C03               	skipc
  5795  0F98  2F9A               	goto	u2651
  5796  0F99  2F9B               	goto	u2650
  5797  0F9A                     u2651:
  5798  0F9A  2F9E               	goto	l2824
  5799  0F9B                     u2650:
  5800                           opt subtitle "HI-TECH Software Omniscient Code Generator (Lite mode) build 49521"
  5801  0F9B                     l2822:	
  5802  0F9B  01F4               	clrf	(_isdigit$587)
  5803  0F9C  0AF4               	incf	(_isdigit$587),f
  5804  0F9D  2F9E               	goto	l2824
  5805                           opt subtitle "HI-TECH Software Omniscient Code Generator (Lite mode) build 49521"
  5806  0F9E                     l422:	
  5807                           opt subtitle "HI-TECH Software Omniscient Code Generator (Lite mode) build 49521"
  5808  0F9E                     l2824:	
  5809  0F9E  0C74               	rrf	(_isdigit$587),w
  5810                           opt subtitle "HI-TECH Software Omniscient Code Generator (Lite mode) build 49521"
  5811  0F9F  2FA0               	goto	l423
  5812                           opt subtitle "HI-TECH Software Omniscient Code Generator (Lite mode) build 49521"
  5813  0FA0                     l2826:	
  5814                           opt subtitle "HI-TECH Software Omniscient Code Generator (Lite mode) build 49521"
  5815                           
  5816  0FA0                     l423:	
  5817  0FA0  0008               	return
  5818                           opt subtitle "HI-TECH Software Omniscient Code Generator (Lite mode) build 49521"
  5819                           
  5820  0FA1                     	__end_of_isdigit:
  5821                           opt subtitle "HI-TECH Software Omniscient Code Generator (Lite mode) build 49521"
  5822                           
  5823                           opt pagewidth 120
  5824                           
  5825                           	opt lm
  5826                           
  5827                           	processor	16F88
  5828                           clrc	macro
  5829                           	bcf	3,0
  5830                           	endm
  5831                           clrz	macro
  5832                           	bcf	3,2
  5833                           	endm
  5834                           setc	macro
  5835                           	bsf	3,0
  5836                           	endm
  5837                           setz	macro
  5838                           	bsf	3,2
  5839                           	endm
  5840                           skipc	macro
  5841                           	btfss	3,0
  5842                           	endm
  5843                           skipz	macro
  5844                           	btfss	3,2
  5845                           	endm
  5846                           skipnc	macro
  5847                           	btfsc	3,0
  5848                           	endm
  5849                           skipnz	macro
  5850                           	btfsc	3,2
  5851                           	endm
  5852                           indf	equ	0
  5853                           indf0	equ	0
  5854                           pc	equ	2
  5855                           pcl	equ	2
  5856  0773                     __ptext902:	;psect for function ___wmul
  5857                           opt subtitle "HI-TECH Software Omniscient Code Generator (Lite mode) build 49521"
  5858                           
  5859                           opt pagewidth 120
  5860                           
  5861  002C                     	__size_of___wmul	equ	__end_of___wmul-___wmul
  5862                           opt subtitle "HI-TECH Software Omniscient Code Generator (Lite mode) build 49521"
  5863  0773                     ___wmul:	
  5864                           opt subtitle "HI-TECH Software Omniscient Code Generator (Lite mode) build 49521"
  5865                           
  5866                           opt pagewidth 120
  5867                           
  5868  0773                     l2828:	
  5869  0773  01F4               	clrf	(___wmul@product)
  5870  0774  01F5               	clrf	(___wmul@product+1)
  5871  0775  2F76               	goto	l2830
  5872                           opt subtitle "HI-TECH Software Omniscient Code Generator (Lite mode) build 49521"
  5873                           
  5874  0776                     l432:	
  5875                           opt subtitle "HI-TECH Software Omniscient Code Generator (Lite mode) build 49521"
  5876                           
  5877  0776                     l2830:	
  5878  0776  1283               	bcf	status, 5	;RP0=0, select bank0
  5879  0777  1303               	bcf	status, 6	;RP1=0, select bank0
  5880  0778  1C48               	btfss	(___wmul@multiplier),(0)&7
  5881  0779  2F7B               	goto	u2661
  5882  077A  2F7C               	goto	u2660
  5883  077B                     u2661:
  5884  077B  2F82               	goto	l433
  5885  077C                     u2660:
  5886                           opt subtitle "HI-TECH Software Omniscient Code Generator (Lite mode) build 49521"
  5887                           
  5888  077C                     l2832:	
  5889  077C  084A               	movf	(___wmul@multiplicand),w
  5890  077D  07F4               	addwf	(___wmul@product),f
  5891  077E  1803               	skipnc
  5892  077F  0AF5               	incf	(___wmul@product+1),f
  5893  0780  084B               	movf	(___wmul@multiplicand+1),w
  5894  0781  07F5               	addwf	(___wmul@product+1),f
  5895                           opt subtitle "HI-TECH Software Omniscient Code Generator (Lite mode) build 49521"
  5896  0782                     l433:	
  5897                           opt subtitle "HI-TECH Software Omniscient Code Generator (Lite mode) build 49521"
  5898  0782  3001               	movlw	01h
  5899                           opt subtitle "HI-TECH Software Omniscient Code Generator (Lite mode) build 49521"
  5900  0783                     u2675:
  5901  0783  1003               	clrc
  5902  0784  0DCA               	rlf	(___wmul@multiplicand),f
  5903  0785  0DCB               	rlf	(___wmul@multiplicand+1),f
  5904  0786  3EFF               	addlw	-1
  5905  0787  1D03               	skipz
  5906  0788  2F83               	goto	u2675
  5907                           opt subtitle "HI-TECH Software Omniscient Code Generator (Lite mode) build 49521"
  5908                           
  5909  0789                     l2834:	
  5910  0789  3001               	movlw	01h
  5911                           opt subtitle "HI-TECH Software Omniscient Code Generator (Lite mode) build 49521"
  5912  078A                     u2685:
  5913  078A  1003               	clrc
  5914  078B  0CC9               	rrf	(___wmul@multiplier+1),f
  5915  078C  0CC8               	rrf	(___wmul@multiplier),f
  5916  078D  3EFF               	addlw	-1
  5917  078E  1D03               	skipz
  5918  078F  2F8A               	goto	u2685
  5919                           opt subtitle "HI-TECH Software Omniscient Code Generator (Lite mode) build 49521"
  5920  0790  0849               	movf	((___wmul@multiplier+1)),w
  5921  0791  0448               	iorwf	((___wmul@multiplier)),w
  5922  0792  1D03               	skipz
  5923  0793  2F95               	goto	u2691
  5924  0794  2F96               	goto	u2690
  5925  0795                     u2691:
  5926  0795  2F76               	goto	l2830
  5927  0796                     u2690:
  5928  0796  2F97               	goto	l2836
  5929                           opt subtitle "HI-TECH Software Omniscient Code Generator (Lite mode) build 49521"
  5930  0797                     l434:	
  5931                           opt subtitle "HI-TECH Software Omniscient Code Generator (Lite mode) build 49521"
  5932                           
  5933  0797                     l2836:	
  5934  0797  0875               	movf	(___wmul@product+1),w
  5935  0798  01C9               	clrf	(?___wmul+1)
  5936  0799  07C9               	addwf	(?___wmul+1)
  5937  079A  0874               	movf	(___wmul@product),w
  5938  079B  01C8               	clrf	(?___wmul)
  5939  079C  07C8               	addwf	(?___wmul)
  5940                           opt subtitle "HI-TECH Software Omniscient Code Generator (Lite mode) build 49521"
  5941  079D  2F9E               	goto	l435
  5942                           opt subtitle "HI-TECH Software Omniscient Code Generator (Lite mode) build 49521"
  5943  079E                     l2838:	
  5944                           opt subtitle "HI-TECH Software Omniscient Code Generator (Lite mode) build 49521"
  5945                           
  5946  079E                     l435:	
  5947  079E  0008               	return
  5948                           opt subtitle "HI-TECH Software Omniscient Code Generator (Lite mode) build 49521"
  5949                           
  5950  079F                     	__end_of___wmul:
  5951                           opt subtitle "HI-TECH Software Omniscient Code Generator (Lite mode) build 49521"
  5952                           
  5953                           opt pagewidth 120
  5954                           
  5955                           	opt lm
  5956                           
  5957                           	processor	16F88
  5958                           clrc	macro
  5959                           	bcf	3,0
  5960                           	endm
  5961                           clrz	macro
  5962                           	bcf	3,2
  5963                           	endm
  5964                           setc	macro
  5965                           	bsf	3,0
  5966                           	endm
  5967                           setz	macro
  5968                           	bsf	3,2
  5969                           	endm
  5970                           skipc	macro
  5971                           	btfss	3,0
  5972                           	endm
  5973                           skipz	macro
  5974                           	btfss	3,2
  5975                           	endm
  5976                           skipnc	macro
  5977                           	btfsc	3,0
  5978                           	endm
  5979                           skipnz	macro
  5980                           	btfsc	3,2
  5981                           	endm
  5982                           indf	equ	0
  5983                           indf0	equ	0
  5984                           pc	equ	2
  5985                           pcl	equ	2
  5986                           status	equ	3
  5987  055C                     __ptext903:	;psect for function ___lwdiv
  5988                           opt subtitle "HI-TECH Software Omniscient Code Generator (Lite mode) build 49521"
  5989                           
  5990                           opt pagewidth 120
  5991                           
  5992  004F                     	__size_of___lwdiv	equ	__end_of___lwdiv-___lwdiv
  5993                           opt subtitle "HI-TECH Software Omniscient Code Generator (Lite mode) build 49521"
  5994  055C                     ___lwdiv:	
  5995                           opt subtitle "HI-TECH Software Omniscient Code Generator (Lite mode) build 49521"
  5996                           
  5997                           opt pagewidth 120
  5998                           
  5999  055C                     l2840:	
  6000  055C  1283               	bcf	status, 5	;RP0=0, select bank0
  6001  055D  1303               	bcf	status, 6	;RP1=0, select bank0
  6002  055E  01CD               	clrf	(___lwdiv@quotient)
  6003  055F  01CE               	clrf	(___lwdiv@quotient+1)
  6004                           opt subtitle "HI-TECH Software Omniscient Code Generator (Lite mode) build 49521"
  6005                           
  6006  0560                     l2842:	
  6007  0560  0849               	movf	(___lwdiv@divisor+1),w
  6008  0561  0448               	iorwf	(___lwdiv@divisor),w
  6009  0562  1903               	skipnz
  6010  0563  2D65               	goto	u2701
  6011  0564  2D66               	goto	u2700
  6012  0565                     u2701:
  6013  0565  2DA3               	goto	l2862
  6014  0566                     u2700:
  6015                           opt subtitle "HI-TECH Software Omniscient Code Generator (Lite mode) build 49521"
  6016                           
  6017  0566                     l2844:	
  6018  0566  01CC               	clrf	(___lwdiv@counter)
  6019  0567  0ACC               	incf	(___lwdiv@counter),f
  6020                           opt subtitle "HI-TECH Software Omniscient Code Generator (Lite mode) build 49521"
  6021  0568  2D75               	goto	l2850
  6022                           opt subtitle "HI-TECH Software Omniscient Code Generator (Lite mode) build 49521"
  6023  0569                     l440:	
  6024                           opt subtitle "HI-TECH Software Omniscient Code Generator (Lite mode) build 49521"
  6025                           
  6026  0569                     l2846:	
  6027  0569  3001               	movlw	01h
  6028                           opt subtitle "HI-TECH Software Omniscient Code Generator (Lite mode) build 49521"
  6029  056A                     u2715:
  6030  056A  1003               	clrc
  6031  056B  0DC8               	rlf	(___lwdiv@divisor),f
  6032  056C  0DC9               	rlf	(___lwdiv@divisor+1),f
  6033  056D  3EFF               	addlw	-1
  6034  056E  1D03               	skipz
  6035  056F  2D6A               	goto	u2715
  6036                           opt subtitle "HI-TECH Software Omniscient Code Generator (Lite mode) build 49521"
  6037                           
  6038  0570                     l2848:	
  6039  0570  3001               	movlw	(01h)
  6040  0571  00F4               	movwf	(??___lwdiv+0)+0
  6041  0572  0874               	movf	(??___lwdiv+0)+0,w
  6042  0573  07CC               	addwf	(___lwdiv@counter),f
  6043  0574  2D75               	goto	l2850
  6044                           opt subtitle "HI-TECH Software Omniscient Code Generator (Lite mode) build 49521"
  6045                           
  6046  0575                     l439:	
  6047                           opt subtitle "HI-TECH Software Omniscient Code Generator (Lite mode) build 49521"
  6048                           
  6049  0575                     l2850:	
  6050  0575  1FC9               	btfss	(___lwdiv@divisor+1),(15)&7
  6051  0576  2D78               	goto	u2721
  6052  0577  2D79               	goto	u2720
  6053  0578                     u2721:
  6054  0578  2D69               	goto	l2846
  6055  0579                     u2720:
  6056  0579  2D7B               	goto	l2852
  6057                           opt subtitle "HI-TECH Software Omniscient Code Generator (Lite mode) build 49521"
  6058  057A                     l441:	
  6059  057A  2D7B               	goto	l2852
  6060                           opt subtitle "HI-TECH Software Omniscient Code Generator (Lite mode) build 49521"
  6061                           
  6062  057B                     l442:	
  6063                           opt subtitle "HI-TECH Software Omniscient Code Generator (Lite mode) build 49521"
  6064                           
  6065  057B                     l2852:	
  6066  057B  3001               	movlw	01h
  6067                           opt subtitle "HI-TECH Software Omniscient Code Generator (Lite mode) build 49521"
  6068  057C                     u2735:
  6069  057C  1003               	clrc
  6070  057D  0DCD               	rlf	(___lwdiv@quotient),f
  6071  057E  0DCE               	rlf	(___lwdiv@quotient+1),f
  6072  057F  3EFF               	addlw	-1
  6073  0580  1D03               	skipz
  6074  0581  2D7C               	goto	u2735
  6075                           opt subtitle "HI-TECH Software Omniscient Code Generator (Lite mode) build 49521"
  6076  0582  0849               	movf	(___lwdiv@divisor+1),w
  6077  0583  024B               	subwf	(___lwdiv@dividend+1),w
  6078  0584  1D03               	skipz
  6079  0585  2D88               	goto	u2745
  6080  0586  0848               	movf	(___lwdiv@divisor),w
  6081  0587  024A               	subwf	(___lwdiv@dividend),w
  6082  0588                     u2745:
  6083  0588  1C03               	skipc
  6084  0589  2D8B               	goto	u2741
  6085  058A  2D8C               	goto	u2740
  6086  058B                     u2741:
  6087  058B  2D94               	goto	l2858
  6088  058C                     u2740:
  6089                           opt subtitle "HI-TECH Software Omniscient Code Generator (Lite mode) build 49521"
  6090                           
  6091  058C                     l2854:	
  6092  058C  0848               	movf	(___lwdiv@divisor),w
  6093  058D  02CA               	subwf	(___lwdiv@dividend),f
  6094  058E  0849               	movf	(___lwdiv@divisor+1),w
  6095  058F  1C03               	skipc
  6096  0590  03CB               	decf	(___lwdiv@dividend+1),f
  6097  0591  02CB               	subwf	(___lwdiv@dividend+1),f
  6098                           opt subtitle "HI-TECH Software Omniscient Code Generator (Lite mode) build 49521"
  6099                           
  6100  0592                     l2856:	
  6101  0592  144D               	bsf	(___lwdiv@quotient)+(0/8),(0)&7
  6102  0593  2D94               	goto	l2858
  6103                           opt subtitle "HI-TECH Software Omniscient Code Generator (Lite mode) build 49521"
  6104                           
  6105  0594                     l443:	
  6106                           opt subtitle "HI-TECH Software Omniscient Code Generator (Lite mode) build 49521"
  6107                           
  6108  0594                     l2858:	
  6109  0594  3001               	movlw	01h
  6110                           opt subtitle "HI-TECH Software Omniscient Code Generator (Lite mode) build 49521"
  6111  0595                     u2755:
  6112  0595  1003               	clrc
  6113  0596  0CC9               	rrf	(___lwdiv@divisor+1),f
  6114  0597  0CC8               	rrf	(___lwdiv@divisor),f
  6115  0598  3EFF               	addlw	-1
  6116  0599  1D03               	skipz
  6117  059A  2D95               	goto	u2755
  6118                           opt subtitle "HI-TECH Software Omniscient Code Generator (Lite mode) build 49521"
  6119                           
  6120  059B                     l2860:	
  6121  059B  3001               	movlw	low(01h)
  6122  059C  02CC               	subwf	(___lwdiv@counter),f
  6123  059D  1D03               	btfss	status,2
  6124  059E  2DA0               	goto	u2761
  6125  059F  2DA1               	goto	u2760
  6126  05A0                     u2761:
  6127  05A0  2D7B               	goto	l2852
  6128  05A1                     u2760:
  6129  05A1  2DA3               	goto	l2862
  6130                           opt subtitle "HI-TECH Software Omniscient Code Generator (Lite mode) build 49521"
  6131  05A2                     l444:	
  6132  05A2  2DA3               	goto	l2862
  6133                           opt subtitle "HI-TECH Software Omniscient Code Generator (Lite mode) build 49521"
  6134                           
  6135  05A3                     l438:	
  6136                           opt subtitle "HI-TECH Software Omniscient Code Generator (Lite mode) build 49521"
  6137                           
  6138  05A3                     l2862:	
  6139  05A3  084E               	movf	(___lwdiv@quotient+1),w
  6140  05A4  01C9               	clrf	(?___lwdiv+1)
  6141  05A5  07C9               	addwf	(?___lwdiv+1)
  6142  05A6  084D               	movf	(___lwdiv@quotient),w
  6143  05A7  01C8               	clrf	(?___lwdiv)
  6144  05A8  07C8               	addwf	(?___lwdiv)
  6145                           opt subtitle "HI-TECH Software Omniscient Code Generator (Lite mode) build 49521"
  6146  05A9  2DAA               	goto	l445
  6147                           opt subtitle "HI-TECH Software Omniscient Code Generator (Lite mode) build 49521"
  6148  05AA                     l2864:	
  6149                           opt subtitle "HI-TECH Software Omniscient Code Generator (Lite mode) build 49521"
  6150                           
  6151  05AA                     l445:	
  6152  05AA  0008               	return
  6153                           opt subtitle "HI-TECH Software Omniscient Code Generator (Lite mode) build 49521"
  6154                           
  6155  05AB                     	__end_of___lwdiv:
  6156                           opt subtitle "HI-TECH Software Omniscient Code Generator (Lite mode) build 49521"
  6157                           
  6158                           opt pagewidth 120
  6159                           
  6160                           	opt lm
  6161                           
  6162                           	processor	16F88
  6163                           clrc	macro
  6164                           	bcf	3,0
  6165                           	endm
  6166                           clrz	macro
  6167                           	bcf	3,2
  6168                           	endm
  6169                           setc	macro
  6170                           	bsf	3,0
  6171                           	endm
  6172                           setz	macro
  6173                           	bsf	3,2
  6174                           	endm
  6175                           skipc	macro
  6176                           	btfss	3,0
  6177                           	endm
  6178                           skipz	macro
  6179                           	btfss	3,2
  6180                           	endm
  6181                           skipnc	macro
  6182                           	btfsc	3,0
  6183                           	endm
  6184                           skipnz	macro
  6185                           	btfsc	3,2
  6186                           	endm
  6187                           indf	equ	0
  6188                           indf0	equ	0
  6189                           pc	equ	2
  6190                           pcl	equ	2
  6191  068A                     __ptext904:	;psect for function ___lwmod
  6192                           opt subtitle "HI-TECH Software Omniscient Code Generator (Lite mode) build 49521"
  6193                           
  6194                           opt pagewidth 120
  6195                           
  6196  0045                     	__size_of___lwmod	equ	__end_of___lwmod-___lwmod
  6197                           opt subtitle "HI-TECH Software Omniscient Code Generator (Lite mode) build 49521"
  6198  068A                     ___lwmod:	
  6199                           opt subtitle "HI-TECH Software Omniscient Code Generator (Lite mode) build 49521"
  6200                           
  6201                           opt pagewidth 120
  6202                           
  6203  068A                     l2866:	
  6204  068A  1283               	bcf	status, 5	;RP0=0, select bank0
  6205  068B  1303               	bcf	status, 6	;RP1=0, select bank0
  6206  068C  0850               	movf	(___lwmod@divisor+1),w
  6207  068D  044F               	iorwf	(___lwmod@divisor),w
  6208  068E  1903               	skipnz
  6209  068F  2E91               	goto	u2771
  6210  0690  2E92               	goto	u2770
  6211  0691                     u2771:
  6212  0691  2EC7               	goto	l2884
  6213  0692                     u2770:
  6214                           opt subtitle "HI-TECH Software Omniscient Code Generator (Lite mode) build 49521"
  6215                           
  6216  0692                     l2868:	
  6217  0692  01D3               	clrf	(___lwmod@counter)
  6218  0693  0AD3               	incf	(___lwmod@counter),f
  6219                           opt subtitle "HI-TECH Software Omniscient Code Generator (Lite mode) build 49521"
  6220  0694  2EA1               	goto	l2874
  6221                           opt subtitle "HI-TECH Software Omniscient Code Generator (Lite mode) build 49521"
  6222  0695                     l450:	
  6223                           opt subtitle "HI-TECH Software Omniscient Code Generator (Lite mode) build 49521"
  6224                           
  6225  0695                     l2870:	
  6226  0695  3001               	movlw	01h
  6227                           opt subtitle "HI-TECH Software Omniscient Code Generator (Lite mode) build 49521"
  6228  0696                     u2785:
  6229  0696  1003               	clrc
  6230  0697  0DCF               	rlf	(___lwmod@divisor),f
  6231  0698  0DD0               	rlf	(___lwmod@divisor+1),f
  6232  0699  3EFF               	addlw	-1
  6233  069A  1D03               	skipz
  6234  069B  2E96               	goto	u2785
  6235                           opt subtitle "HI-TECH Software Omniscient Code Generator (Lite mode) build 49521"
  6236                           
  6237  069C                     l2872:	
  6238  069C  3001               	movlw	(01h)
  6239  069D  00F5               	movwf	(??___lwmod+0)+0
  6240  069E  0875               	movf	(??___lwmod+0)+0,w
  6241  069F  07D3               	addwf	(___lwmod@counter),f
  6242  06A0  2EA1               	goto	l2874
  6243                           opt subtitle "HI-TECH Software Omniscient Code Generator (Lite mode) build 49521"
  6244                           
  6245  06A1                     l449:	
  6246                           opt subtitle "HI-TECH Software Omniscient Code Generator (Lite mode) build 49521"
  6247                           
  6248  06A1                     l2874:	
  6249  06A1  1FD0               	btfss	(___lwmod@divisor+1),(15)&7
  6250  06A2  2EA4               	goto	u2791
  6251  06A3  2EA5               	goto	u2790
  6252  06A4                     u2791:
  6253  06A4  2E95               	goto	l2870
  6254  06A5                     u2790:
  6255  06A5  2EA7               	goto	l2876
  6256                           opt subtitle "HI-TECH Software Omniscient Code Generator (Lite mode) build 49521"
  6257  06A6                     l451:	
  6258  06A6  2EA7               	goto	l2876
  6259                           opt subtitle "HI-TECH Software Omniscient Code Generator (Lite mode) build 49521"
  6260                           
  6261  06A7                     l452:	
  6262                           opt subtitle "HI-TECH Software Omniscient Code Generator (Lite mode) build 49521"
  6263                           
  6264  06A7                     l2876:	
  6265  06A7  0850               	movf	(___lwmod@divisor+1),w
  6266  06A8  0252               	subwf	(___lwmod@dividend+1),w
  6267  06A9  1D03               	skipz
  6268  06AA  2EAD               	goto	u2805
  6269  06AB  084F               	movf	(___lwmod@divisor),w
  6270  06AC  0251               	subwf	(___lwmod@dividend),w
  6271  06AD                     u2805:
  6272  06AD  1C03               	skipc
  6273  06AE  2EB0               	goto	u2801
  6274  06AF  2EB1               	goto	u2800
  6275  06B0                     u2801:
  6276  06B0  2EB8               	goto	l2880
  6277  06B1                     u2800:
  6278                           opt subtitle "HI-TECH Software Omniscient Code Generator (Lite mode) build 49521"
  6279                           
  6280  06B1                     l2878:	
  6281  06B1  084F               	movf	(___lwmod@divisor),w
  6282  06B2  02D1               	subwf	(___lwmod@dividend),f
  6283  06B3  0850               	movf	(___lwmod@divisor+1),w
  6284  06B4  1C03               	skipc
  6285  06B5  03D2               	decf	(___lwmod@dividend+1),f
  6286  06B6  02D2               	subwf	(___lwmod@dividend+1),f
  6287  06B7  2EB8               	goto	l2880
  6288                           opt subtitle "HI-TECH Software Omniscient Code Generator (Lite mode) build 49521"
  6289  06B8                     l453:	
  6290                           opt subtitle "HI-TECH Software Omniscient Code Generator (Lite mode) build 49521"
  6291                           
  6292  06B8                     l2880:	
  6293  06B8  3001               	movlw	01h
  6294                           opt subtitle "HI-TECH Software Omniscient Code Generator (Lite mode) build 49521"
  6295  06B9                     u2815:
  6296  06B9  1003               	clrc
  6297  06BA  0CD0               	rrf	(___lwmod@divisor+1),f
  6298  06BB  0CCF               	rrf	(___lwmod@divisor),f
  6299  06BC  3EFF               	addlw	-1
  6300  06BD  1D03               	skipz
  6301  06BE  2EB9               	goto	u2815
  6302                           opt subtitle "HI-TECH Software Omniscient Code Generator (Lite mode) build 49521"
  6303                           
  6304  06BF                     l2882:	
  6305  06BF  3001               	movlw	low(01h)
  6306  06C0  02D3               	subwf	(___lwmod@counter),f
  6307  06C1  1D03               	btfss	status,2
  6308  06C2  2EC4               	goto	u2821
  6309  06C3  2EC5               	goto	u2820
  6310  06C4                     u2821:
  6311  06C4  2EA7               	goto	l2876
  6312  06C5                     u2820:
  6313  06C5  2EC7               	goto	l2884
  6314                           opt subtitle "HI-TECH Software Omniscient Code Generator (Lite mode) build 49521"
  6315  06C6                     l454:	
  6316  06C6  2EC7               	goto	l2884
  6317                           opt subtitle "HI-TECH Software Omniscient Code Generator (Lite mode) build 49521"
  6318                           
  6319  06C7                     l448:	
  6320                           opt subtitle "HI-TECH Software Omniscient Code Generator (Lite mode) build 49521"
  6321                           
  6322  06C7                     l2884:	
  6323  06C7  0852               	movf	(___lwmod@dividend+1),w
  6324  06C8  01D0               	clrf	(?___lwmod+1)
  6325  06C9  07D0               	addwf	(?___lwmod+1)
  6326  06CA  0851               	movf	(___lwmod@dividend),w
  6327  06CB  01CF               	clrf	(?___lwmod)
  6328  06CC  07CF               	addwf	(?___lwmod)
  6329                           opt subtitle "HI-TECH Software Omniscient Code Generator (Lite mode) build 49521"
  6330  06CD  2ECE               	goto	l455
  6331                           opt subtitle "HI-TECH Software Omniscient Code Generator (Lite mode) build 49521"
  6332  06CE                     l2886:	
  6333                           opt subtitle "HI-TECH Software Omniscient Code Generator (Lite mode) build 49521"
  6334                           
  6335  06CE                     l455:	
  6336  06CE  0008               	return
  6337                           opt subtitle "HI-TECH Software Omniscient Code Generator (Lite mode) build 49521"
  6338                           
  6339  06CF                     	__end_of___lwmod:
  6340                           opt subtitle "HI-TECH Software Omniscient Code Generator (Lite mode) build 49521"
  6341                           
  6342                           opt pagewidth 120
  6343                           
  6344                           	opt lm
  6345                           
  6346                           	processor	16F88
  6347                           clrc	macro
  6348                           	bcf	3,0
  6349                           	endm
  6350                           clrz	macro
  6351                           	bcf	3,2
  6352                           	endm
  6353                           setc	macro
  6354                           	bsf	3,0
  6355                           	endm
  6356                           setz	macro
  6357                           	bsf	3,2
  6358                           	endm
  6359                           skipc	macro
  6360                           	btfss	3,0
  6361                           	endm
  6362                           skipz	macro
  6363                           	btfss	3,2
  6364                           	endm
  6365                           skipnc	macro
  6366                           	btfsc	3,0
  6367                           	endm
  6368                           skipnz	macro
  6369                           	btfsc	3,2
  6370                           	endm
  6371                           indf	equ	0
  6372                           indf0	equ	0
  6373                           pc	equ	2
  6374  0F6D                     __ptext905:	;psect for function _isr
  6375                           opt subtitle "HI-TECH Software Omniscient Code Generator (Lite mode) build 49521"
  6376                           
  6377                           opt pagewidth 120
  6378                           
  6379  0010                     	__size_of_isr	equ	__end_of_isr-_isr
  6380                           opt subtitle "HI-TECH Software Omniscient Code Generator (Lite mode) build 49521"
  6381  0F6D                     _isr:	
  6382                           opt subtitle "HI-TECH Software Omniscient Code Generator (Lite mode) build 49521"
  6383                           
  6384                           opt pagewidth 120
  6385                           
  6386  0004                     __pintentry:
  6387                           opt subtitle "HI-TECH Software Omniscient Code Generator (Lite mode) build 49521"
  6388  0004                     interrupt_function:
  6389                           opt subtitle "HI-TECH Software Omniscient Code Generator (Lite mode) build 49521"
  6390  007E                     	saved_w	set	btemp+0
  6391  0004  00FE               	movwf	saved_w
  6392  0005  0E03               	swapf	status,w
  6393  0006  00F0               	movwf	(??_isr+0)
  6394  0007  0804               	movf	fsr0,w
  6395  0008  00F1               	movwf	(??_isr+1)
  6396  0009  080A               	movf	pclath,w
  6397  000A  00F2               	movwf	(??_isr+2)
  6398  000B  1283               	bcf	status, 5	;RP0=0, select bank0
  6399  000C  1303               	bcf	status, 6	;RP1=0, select bank0
  6400  000D  087F               	movf	btemp+1,w
  6401  000E  00F3               	movwf	(??_isr+3)
  6402  000F  158A  2F6D         	ljmp	_isr
  6403                           opt subtitle "HI-TECH Software Omniscient Code Generator (Lite mode) build 49521"
  6404                           
  6405                           opt pagewidth 120
  6406  0F6D                     i1l1576:	
  6407                           opt subtitle "HI-TECH Software Omniscient Code Generator (Lite mode) build 49521"
  6408  0F6D  158A  27CC  158A   	fcall	_tick_update
  6409                           opt subtitle "HI-TECH Software Omniscient Code Generator (Lite mode) build 49521"
  6410                           
  6411  0F70                     i1l58:	
  6412  0F70  0873               	movf	(??_isr+3),w
  6413  0F71  1283               	bcf	status, 5	;RP0=0, select bank0
  6414  0F72  1303               	bcf	status, 6	;RP1=0, select bank0
  6415  0F73  00FF               	movwf	btemp+1
  6416  0F74  0872               	movf	(??_isr+2),w
  6417  0F75  008A               	movwf	pclath
  6418  0F76  0871               	movf	(??_isr+1),w
  6419  0F77  0084               	movwf	fsr0
  6420  0F78  0E70               	swapf	(??_isr+0)^0FFFFFF80h,w
  6421  0F79  0083               	movwf	status
  6422  0F7A  0EFE               	swapf	saved_w,f
  6423  0F7B  0E7E               	swapf	saved_w,w
  6424  0F7C  0009               	retfie
  6425                           opt subtitle "HI-TECH Software Omniscient Code Generator (Lite mode) build 49521"
  6426                           
  6427  0F7D                     	__end_of_isr:
  6428                           opt subtitle "HI-TECH Software Omniscient Code Generator (Lite mode) build 49521"
  6429                           
  6430                           opt pagewidth 120
  6431                           
  6432                           	opt lm
  6433                           
  6434                           	processor	16F88
  6435                           clrc	macro
  6436                           	bcf	3,0
  6437                           	endm
  6438                           clrz	macro
  6439                           	bcf	3,2
  6440                           	endm
  6441                           setc	macro
  6442                           	bsf	3,0
  6443                           	endm
  6444                           setz	macro
  6445                           	bsf	3,2
  6446                           	endm
  6447                           skipc	macro
  6448                           	btfss	3,0
  6449                           	endm
  6450                           skipz	macro
  6451                           	btfss	3,2
  6452                           	endm
  6453                           skipnc	macro
  6454                           	btfsc	3,0
  6455                           	endm
  6456                           skipnz	macro
  6457                           	btfsc	3,2
  6458                           	endm
  6459                           indf	equ	0
  6460                           indf0	equ	0
  6461  0FCC                     __ptext906:	;psect for function _tick_update
  6462                           opt subtitle "HI-TECH Software Omniscient Code Generator (Lite mode) build 49521"
  6463                           
  6464                           opt pagewidth 120
  6465                           
  6466  0017                     	__size_of_tick_update	equ	__end_of_tick_update-_tick_update
  6467                           opt subtitle "HI-TECH Software Omniscient Code Generator (Lite mode) build 49521"
  6468  0FCC                     _tick_update:	
  6469                           opt subtitle "HI-TECH Software Omniscient Code Generator (Lite mode) build 49521"
  6470                           
  6471                           opt pagewidth 120
  6472                           
  6473  0FCC                     i1l1254:	
  6474                           opt subtitle "HI-TECH Software Omniscient Code Generator (Lite mode) build 49521"
  6475  0FCC  1283               	bcf	status, 5	;RP0=0, select bank0
  6476  0FCD  1303               	bcf	status, 6	;RP1=0, select bank0
  6477  0FCE  1C0C               	btfss	(12),0	;volatile
  6478  0FCF  2FD1               	goto	u35_21
  6479  0FD0  2FD2               	goto	u35_20
  6480  0FD1                     u35_21:
  6481  0FD1  2FE2               	goto	i1l152
  6482  0FD2                     u35_20:
  6483                           opt subtitle "HI-TECH Software Omniscient Code Generator (Lite mode) build 49521"
  6484                           
  6485  0FD2                     i1l1256:	
  6486                           opt subtitle "HI-TECH Software Omniscient Code Generator (Lite mode) build 49521"
  6487  0FD2  3001               	movlw	01h
  6488  0FD3  07F6               	addwf	(_tickcnt),f	;volatile
  6489  0FD4  3000               	movlw	0
  6490  0FD5  1803               	skipnc
  6491  0FD6  3001               movlw 1
  6492  0FD7  07F7               	addwf	(_tickcnt+1),f	;volatile
  6493  0FD8  3000               	movlw	0
  6494  0FD9  1803               	skipnc
  6495  0FDA  3001               movlw 1
  6496  0FDB  07F8               	addwf	(_tickcnt+2),f	;volatile
  6497  0FDC  3000               	movlw	0
  6498  0FDD  1803               	skipnc
  6499  0FDE  3001               movlw 1
  6500  0FDF  07F9               	addwf	(_tickcnt+3),f	;volatile
  6501                           opt subtitle "HI-TECH Software Omniscient Code Generator (Lite mode) build 49521"
  6502                           
  6503  0FE0                     i1l1258:	
  6504                           opt subtitle "HI-TECH Software Omniscient Code Generator (Lite mode) build 49521"
  6505  0FE0  100C               	bcf	(12),0	;volatile
  6506  0FE1  2FE2               	goto	i1l152
  6507                           opt subtitle "HI-TECH Software Omniscient Code Generator (Lite mode) build 49521"
  6508                           
  6509  0FE2                     i1l151:	
  6510                           opt subtitle "HI-TECH Software Omniscient Code Generator (Lite mode) build 49521"
  6511                           
  6512  0FE2                     i1l152:	
  6513  0FE2  0008               	return
  6514                           opt subtitle "HI-TECH Software Omniscient Code Generator (Lite mode) build 49521"
  6515                           
  6516  0FE3                     	__end_of_tick_update:
  6517                           opt subtitle "HI-TECH Software Omniscient Code Generator (Lite mode) build 49521"
  6518                           
  6519                           opt pagewidth 120
  6520  0000                     __ptext907:	;psect for function _tick_update
  6521                           opt subtitle "HI-TECH Software Omniscient Code Generator (Lite mode) build 49521"
  6522  007E                     	btemp set 07Eh
  6523                           opt subtitle "HI-TECH Software Omniscient Code Generator (Lite mode) build 49521"
  6524                           
  6525                           opt pagewidth 120
  6526  007E                     	wtemp0 set btemp


Data Sizes:
    Strings     62
    Constant    14
    Data        2
    BSS         44
    Persistent  1
    Stack       0

Auto Spaces:
    Space          Size  Autos    Used
    COMMON           14      6      10
    BANK0            80     37      80
    BANK1            80      3       3
    BANK3            96      0       0
    BANK2            96      0       0

Pointer List with Targets:

    ?___lwdiv	unsigned int  size(1) Largest target is 0

    ?___lwmod	unsigned int  size(1) Largest target is 0

    ?___wmul	unsigned int  size(1) Largest target is 0

    lcd_ioinit@iodata	PTR void  size(1) Largest target is 0
		 -> NULL(NULL[0]), 

    ?_tick_get	unsigned long  size(1) Largest target is 0

    sprintf@_val._cp	PTR const unsigned char  size(1) Largest target is 1
		 -> sprintf@c(BANK0[1]), 

    sprintf@f	PTR const unsigned char  size(1) Largest target is 23
		 -> STR_3(CODE[23]), STR_2(CODE[22]), 

    sprintf@sp	PTR unsigned char  size(1) Largest target is 20
		 -> buf(BANK0[20]), 

    ?_sprintf	int  size(1) Largest target is 0

    sprintf@ap	PTR void [1] size(1) Largest target is 2
		 -> ?_sprintf(BANK0[2]), 

    S517$_cp	PTR const unsigned char  size(1) Largest target is 1
		 -> sprintf@c(BANK0[1]), 

    _val._str._cp	PTR const unsigned char  size(1) Largest target is 1
		 -> sprintf@c(BANK0[1]), 

    lcd_puts@string	PTR const unsigned char  size(2) Largest target is 20
		 -> buf(BANK0[20]), STR_1(CODE[17]), 

    lcd_init@iodata	PTR void  size(1) Largest target is 0
		 -> NULL(NULL[0]), 

    dhtlib_read11@temp	PTR unsigned char  size(1) Largest target is 1
		 -> dht11_task@tb(BANK1[1]), 

    dhtlib_read11@hum	PTR unsigned char  size(1) Largest target is 1
		 -> dht11_task@hb(BANK1[1]), 


Critical Paths under _main in COMMON

    _tick_get->_tick_read_internal
    _sprintf->_isdigit
    _sprintf->___wmul
    _sprintf->___lwmod
    _dhtlib_read->_dhtlib_start
    _lcd_ioinit->_lcd_ioset
    _lcd_send->_lcd_ioset
    _lcd_iowrite4->_lcd_ioset
    ___lwmod->___lwdiv

Critical Paths under _isr in COMMON

    None.

Critical Paths under _main in BANK0

    _main->_dht11_task
    _lcd_init->_lcd_send
    _lcd_on->_lcd_send
    _led_task->_tick_get
    _dht11_task->_sprintf
    _lcd_puts->_lcd_send
    _lcd_goto->_lcd_send
    _dhtlib_read11->_dhtlib_read
    _sprintf->___lwmod
    _lcd_send->_lcd_iowrite4
    ___lwmod->___lwdiv

Critical Paths under _isr in BANK0

    None.

Critical Paths under _main in BANK1

    _main->_dht11_task

Critical Paths under _isr in BANK1

    None.

Critical Paths under _main in BANK3

    None.

Critical Paths under _isr in BANK3

    None.

Critical Paths under _main in BANK2

    None.

Critical Paths under _isr in BANK2

    None.

Call Graph Tables:

 ---------------------------------------------------------------------------------
 (Depth) Function   	        Calls       Base Space   Used Autos Params    Refs
 ---------------------------------------------------------------------------------
 (0) _main                                                 2     2      0    7851
                                             35 BANK0      2     2      0
                           _lcd_init
                          _tick_init
                        _dhtlib_init
                             _lcd_on
                           _lcd_puts
                           _led_task
                         _dht11_task
 ---------------------------------------------------------------------------------
 (1) _lcd_init                                             6     4      2    1509
                                              7 BANK0      6     4      2
                         _lcd_ioinit
                       _lcd_iowrite4
                           _lcd_send
 ---------------------------------------------------------------------------------
 (1) _tick_init                                            0     0      0       0
 ---------------------------------------------------------------------------------
 (1) _dhtlib_init                                          0     0      0       0
 ---------------------------------------------------------------------------------
 (1) _lcd_on                                               1     1      0     719
                                              7 BANK0      1     1      0
                           _lcd_send
 ---------------------------------------------------------------------------------
 (1) _led_task                                             4     4      0       0
                                              4 BANK0      4     4      0
                           _tick_get
 ---------------------------------------------------------------------------------
 (1) _dht11_task                                           8     8      0    4839
                                             30 BANK0      5     5      0
                                              0 BANK1      3     3      0
                           _tick_get
                           _lcd_goto
                      _dhtlib_read11
                            _sprintf
                           _lcd_puts
 ---------------------------------------------------------------------------------
 (2) _lcd_puts                                             2     0      2     784
                                              7 BANK0      2     0      2
                           _lcd_send
 ---------------------------------------------------------------------------------
 (2) _tick_get                                             4     0      4       0
                                              0 BANK0      4     0      4
                 _tick_read_internal
 ---------------------------------------------------------------------------------
 (2) _lcd_goto                                             3     2      1     849
                                              7 BANK0      3     2      1
                           _lcd_send
 ---------------------------------------------------------------------------------
 (2) _dhtlib_read11                                        7     6      1     618
                                              6 BANK0      7     6      1
                        _dhtlib_read
 ---------------------------------------------------------------------------------
 (2) _sprintf                                             18    13      5    2381
                                             12 BANK0     18    13      5
                            _isdigit
                             ___wmul
                            ___lwdiv
                            ___lwmod
 ---------------------------------------------------------------------------------
 (3) _dhtlib_read                                          6     6      0     457
                                              0 BANK0      6     6      0
                       _dhtlib_start
 ---------------------------------------------------------------------------------
 (4) _dhtlib_start                                         2     2      0       0
                                              4 COMMON     2     2      0
 ---------------------------------------------------------------------------------
 (3) _tick_read_internal                                   1     1      0       0
                                              4 COMMON     1     1      0
 ---------------------------------------------------------------------------------
 (2) _lcd_ioinit                                           3     3      0     319
                                              0 BANK0      2     2      0
                          _lcd_ioset
 ---------------------------------------------------------------------------------
 (3) _lcd_send                                             3     2      1     719
                                              4 BANK0      3     2      1
                          _lcd_ioset
                       _lcd_iowrite4
                       _lcd_iowrite8
 ---------------------------------------------------------------------------------
 (4) _lcd_iowrite4                                         4     4      0     378
                                              0 BANK0      4     4      0
                          _lcd_ioset
 ---------------------------------------------------------------------------------
 (5) _lcd_ioset                                            2     1      1     217
                                              4 COMMON     2     1      1
 ---------------------------------------------------------------------------------
 (4) _lcd_iowrite8                                         1     1      0       0
 ---------------------------------------------------------------------------------
 (3) _isdigit                                              2     2      0      99
                                              4 COMMON     2     2      0
 ---------------------------------------------------------------------------------
 (3) ___wmul                                               6     2      4     136
                                              4 COMMON     2     2      0
                                              0 BANK0      4     0      4
 ---------------------------------------------------------------------------------
 (3) ___lwdiv                                              8     4      4     241
                                              4 COMMON     1     1      0
                                              0 BANK0      7     3      4
 ---------------------------------------------------------------------------------
 (3) ___lwmod                                              6     2      4     232
                                              5 COMMON     1     1      0
                                              7 BANK0      5     1      4
                            ___lwdiv (ARG)
 ---------------------------------------------------------------------------------
 Estimated maximum stack depth 5
 ---------------------------------------------------------------------------------
 (Depth) Function   	        Calls       Base Space   Used Autos Params    Refs
 ---------------------------------------------------------------------------------
 (6) _isr                                                  4     4      0       0
                                              0 COMMON     4     4      0
                        _tick_update
 ---------------------------------------------------------------------------------
 (7) _tick_update                                          0     0      0       0
 ---------------------------------------------------------------------------------
 Estimated maximum stack depth 7
 ---------------------------------------------------------------------------------

 Call Graph Graphs:

 _main (ROOT)
   _lcd_init
     _lcd_ioinit
       _lcd_ioset
     _lcd_iowrite4
       _lcd_ioset
     _lcd_send
       _lcd_ioset
       _lcd_iowrite4
         _lcd_ioset
       _lcd_iowrite8
   _tick_init
   _dhtlib_init
   _lcd_on
     _lcd_send
       _lcd_ioset
       _lcd_iowrite4
         _lcd_ioset
       _lcd_iowrite8
   _lcd_puts
     _lcd_send
       _lcd_ioset
       _lcd_iowrite4
         _lcd_ioset
       _lcd_iowrite8
   _led_task
     _tick_get
       _tick_read_internal
   _dht11_task
     _tick_get
       _tick_read_internal
     _lcd_goto
       _lcd_send
         _lcd_ioset
         _lcd_iowrite4
           _lcd_ioset
         _lcd_iowrite8
     _dhtlib_read11
       _dhtlib_read
         _dhtlib_start
     _sprintf
       _isdigit
       ___wmul
       ___lwdiv
       ___lwmod
         ___lwdiv (ARG)
     _lcd_puts
       _lcd_send
         _lcd_ioset
         _lcd_iowrite4
           _lcd_ioset
         _lcd_iowrite8

 _isr (ROOT)
   _tick_update

 Address spaces:
Name               Size   Autos  Total    Cost      Usage
BANK3               60      0       0       9        0.0%
BITBANK3            60      0       0       8        0.0%
SFR3                 0      0       0       4        0.0%
BITSFR3              0      0       0       4        0.0%
BANK2               60      0       0      11        0.0%
BITBANK2            60      0       0      10        0.0%
SFR2                 0      0       0       5        0.0%
BITSFR2              0      0       0       5        0.0%
BANK1               50      3       3       7        3.8%
BITBANK1            50      0       0       6        0.0%
SFR1                 0      0       0       2        0.0%
BITSFR1              0      0       0       2        0.0%
BANK0               50     25      50       5      100.0%
BITBANK0            50      0       0       4        0.0%
SFR0                 0      0       0       1        0.0%
BITSFR0              0      0       0       1        0.0%
COMMON               E      6       A       1       71.4%
BITCOMMON            E      0       0       0        0.0%
CODE                 0      0       0       0        0.0%
DATA                 0      0      66      12        0.0%
ABS                  0      0      5D       3        0.0%
NULL                 0      0       0       0        0.0%
STACK                0      0       9       2        0.0%
EEDATA             100      0       0       0        0.0%


Microchip Technology PIC Macro Assembler V1.12 build 49521 
Symbol Table                                                                                   Sun Aug 24 17:54:22 2014

              ?_lcd_iowrite4 0070                ?_lcd_iowrite8 0070                            pc 0002  
                __CFG_CP$OFF 0000                           l40 0771                           l41 0771  
                         l46 04A8                           l54 05F7                           l47 0489  
                         l55 05F7                           l39 076A                           l80 0368  
                         l48 049E                           l81 03FD                           l49 04A8  
                         l73 07FD                           l90 038B                           l82 036C  
                         l91 0397                           l83 037B                           l92 039C  
                         l84 036F                           l76 0344                           l93 03B9  
                         l85 037B                           l77 0353                           l94 03B5  
                         l86 037F                           l78 0368                           l95 03B8  
                         l87 0388                           l79 035C                           l96 03EF  
                         l88 03F9                           l97 03C8                           l89 0397  
                         l98 03BC                           l99 03C8                           fsr 0004  
        ___wmul@multiplicand 004A                          l100 03CD                          l101 03EC  
                        l102 03EF                          l103 0400                          l106 071C  
                        l107 073F                          l124 0FFF                          l300 008E  
                        l108 0730                          l301 00F6                          l221 07D9  
                        l230 0709                          l310 00B6                          l302 0090  
                        l222 07E5                          l303 0252                          l311 00AA  
                        l223 07F1                          l320 014A                          l312 00C7  
                        l304 0091                          l321 0167                          l313 00DA  
                        l305 0092                          l233 04BF                          l145 04FF  
                        l226 06DD                          l330 01E4                          l322 0188  
                        l306 010B                          l314 00C8                          l234 04AA  
                        l227 06E2                          l155 04CF                          l331 01CB  
                        l323 018D                          l315 00EB                          l307 0093  
                        l235 04CE                          l228 0702                          l156 04EC  
                        l332 01E3                          l324 01C4                          l316 00EC  
                        l308 00A6                          l148 0FB5                          l236 04CE  
                        l261 062C                          l229 0709                          l157 04EF  
                        l333 01F6                          l325 01A3                          l317 0127  
                        l309 00A9                          l422 0F9E                          l270 0643  
                        l262 05FA                          l334 0234                          l326 01C3  
                        l318 0131                          l182 02C1                          l423 0FA0  
                        l263 0643                          l335 01FC                          l327 01AA  
                        l319 0155                          l183 0304                          l440 0569  
                        l432 0776                          l264 0602                          l256 07B5  
                        l336 023F                          l328 01C2                          l184 0303  
                        l441 057A                          l433 0782                          l265 060A  
                        l273 0653                          l257 07C7                          l337 0251  
                        l329 01F7                          l185 0331                          l450 0695  
                        l442 057B                          l434 0797                          l266 0612  
                        l274 0677                          l258 07C9                          l338 0259  
                        l290 001B                          l194 0F8C                          l451 06A6  
                        l443 0594                          l435 079E                          l267 061A  
                        l275 0689                          l291 002D                          l452 06A7  
                        l444 05A2                          l268 0622                          l292 0031  
                        l453 06B8                          l445 05AA                          l269 062A  
                        l293 0039                          l454 06C6                          l438 05A3  
                        l278 0003                          l294 0032                          l455 06CE  
                        l439 0575                          l295 0043                          l448 06C7  
                        l296 0042                          l449 06A1                          l289 0240  
                        l297 0044                          l298 008F                          l299 0055  
                        _GIE 005F                 __CFG_CPD$OFF 0000             lcd_ioinit@iodata 0070  
                        _buf 0034                          _isr 0F6D                          fsr0 0004  
                        indf 0000                  lcd_goto@col 0051                  lcd_goto@row 004F  
          dhtlib_read11@temp 0052                  lcd_ioinit@i 0049                 dhtlib_read@i 004D  
               __CFG_LVP$OFF 0000                         l1040 04F6                         l1042 04F9  
                       l1044 04FA                         l1036 04F0                         l1046 04FB  
                       l1038 04F5                         l1048 07FA                         l2300 0747  
                       l2310 0760                         l2302 0749                         l2400 0FA1  
                       l2320 026A                         l2312 076A                         l2304 0757  
                       l2410 07D9                         l2402 0FA4                         l2330 0292  
                       l2322 026E                         l2314 076D                         l2306 075A  
                       l2500 011D                         l2420 0719                         l2412 07DF  
                       l2404 0FB5                         l2332 029D                         l2340 02C1  
                       l2324 027B                         l2316 025D                         l2308 075D  
                       l2510 0149                         l2502 0121                         l2430 072F  
                       l2422 071B                         l2414 07E5                         l2406 07CD  
                       l2350 02EE                         l2342 02C9                         l2334 02A1  
                       l2326 0283                         l2318 0266                         l2600 0380  
                       l2520 0161                         l2512 014A                         l2504 0127  
                       l2440 001B                         l2432 0730                         l2424 071C  
                       l2416 070D                         l2408 07D3                         l2360 032A  
                       l2352 02FC                         l2344 02CE                         l2336 02AC  
                       l2328 0287                         l2610 03A1                         l2602 0387  
                       l2530 0197                         l2522 017A                         l2514 014E  
                       l2506 0130                         l2450 0033                         l2442 0021  
                       l2434 073D                         l2426 0727                         l2418 0715  
                       l2370 04A9                         l2362 0331                         l2346 02D9  
                       l2354 0304                         l2338 02B3                         l2700 07B5  
                       l2620 03BC                         l2612 03A7                         l2604 038B  
                       l2540 01B5                         l2532 019E                         l2524 0188  
                       l2516 0155                         l2508 0131                         l2460 0055  
                       l2452 0038                         l2444 0028                         l2436 073F  
                       l2428 072D                         l2372 04AA                         l2380 05E5  
                       l2364 0F7D                         l2356 0311                         l2348 02E7  
                       l2710 0647                         l2702 07BA                         l2630 03E7  
                       l2622 03C7                         l2614 03AC                         l2606 0396  
                       l2550 01E4                         l2534 01A3                         l2542 01C4  
                       l2526 018D                         l2518 015B                         l2470 009F  
                       l2462 006C                         l2454 0039                         l2446 002D  
                       l2438 0016                         l2374 04B8                         l2390 044C  
                       l2382 05F2                         l2366 0F80                         l2358 0318  
                       l2294 0740                         l2712 0652                         l2720 0677  
                       l2704 07C0                         l2640 03FE                         l2632 03EC  
                       l2624 03CD                         l2616 03B0                         l2608 039C  
                       l2560 0228                         l2552 01EA                         l2544 01CB  
                       l2536 01AA                         l2528 0191                         l2480 00C8  
                       l2472 00A6                         l2464 007D                         l2456 0044  
                       l2448 002F                         l2376 04BF                         l2392 0452  
                       l2384 0401                         l2368 0F86                         l2296 0744  
                       l2722 067D                         l2714 0653                         l2730 06DD  
                       l2706 07C7                         l2650 0FF6                         l2642 0400  
                       l2634 03F3                         l2626 03DE                         l2618 03B5  
                       l2570 0259                         l2562 022F                         l2554 01F1  
                       l2546 01D2                         l2538 01B1                         l2490 00F5  
                       l2482 00D1                         l2474 00AA                         l2466 0081  
                       l2458 0050                         l2394 0463                         l2386 0405  
                       l2378 05AB                         l2298 0745                         l2820 0F95  
                       l2724 0684                         l2716 066A                         l2732 06E7  
                       l2708 07C9                         l2652 0FF7                         l2644 0FE3  
                       l2636 03FA                         l2628 03E3                         l2580 0343  
                       l2572 0332                         l2564 0234                         l2548 01D6  
                       l2556 01F7                         l2484 00D5                         l2476 00B1  
                       l2468 0093                         l2492 00F6                         l2396 0468  
                       l2388 043F                         l2830 0776                         l2822 0F9B  
                       l2718 0670                         l2734 06EF                         l2726 06D2  
                       l2646 0FEA                         l2638 03FC                         l2590 0357  
                       l2582 0344                         l2574 0336                         l2558 01FC  
                       l2486 00DA                         l2478 00B6                         l2494 010B  
                       l2566 0240                         l2398 0489                         l2840 055C  
                       l2832 077C                         l2824 0F9E                         l2816 0F8E  
                       l2736 0702                         l2728 06D6                         l2648 0FF3  
                       l2592 035C                         l2584 0349                         l2576 033A  
                       l2496 0115                         l2488 00EC                         l2568 0252  
                       l2850 0575                         l2842 0560                         l2834 0789  
                       l2826 0FA0                         l2818 0F8F                         l2690 04D6  
                       l2594 0367                         l2586 034D                         l2578 033B  
                       l2498 0119                         l2860 059B                         l2852 057B  
                       l2844 0566                         l2836 0797                         l2828 0773  
                       l2692 04E8                         l2596 036F                         l2588 0354  
                       l2870 0695                         l2854 058C                         l2846 0569  
                       l2862 05A3                         l2838 079E                         l2790 0612  
                       l2782 05F9                         l2694 079F                         l2598 037A  
                       l2880 06B8                         l2872 069C                         l2864 05AA  
                       l2856 0592                         l2848 0570                         l2792 061A  
                       l2784 05FA                         l2696 07AD                         l2882 06BF  
                       l2874 06A1                         l2866 068A                         l2858 0594  
                       l2794 0622                         l2786 0602                         l2698 07B4  
                       l2876 06A7                         l2868 0692                         l2884 06C7  
                       l2796 062B                         l2788 060A                         l2886 06CE  
                       l2878 06B1                         l2798 062C                         ?_isr 0070  
                       STR_1 054B                         STR_2 0535                         STR_3 051E  
                       u2000 04CD                         u2001 04CC                         u2010 05C8  
                       u2011 05C9                         u2100 0021                         u2020 05E5  
                       u2012 05CE                         u2101 0020                         u2021 05E4  
                       u2013 05CF                         u2110 0050                         u2030 0422  
                       u2111 004F                         u2031 0423                         u2200 015B  
                       u2120 008D                         u2040 043F                         u2032 0428  
                       u2201 015A                         u2121 008C                         u2041 043E  
                       u2033 0429                         u2025 05E1                         u2210 0161  
                       u2130 009F                         u2050 0468                         u2211 0160  
                       u2131 009E                         u2051 0467                         u2300 023E  
                       u2220 017A                         u2140 00C6                         u2060 07D3  
                       u2301 023D                         u2221 0179                         u2141 00C5  
                       u2061 07D2                         u2045 043B                         u2310 0250  
                       u2230 0191                         u2150 00EA                         u2070 07DF  
                       u3007 0681                         u2311 024F                         u2231 0190  
                       u2151 00E9                         u2135 009B                         u2071 07DE  
                       u2400 039B                         u2320 0342                         u2240 0197  
                       u2160 011D                         u2080 0719                         u2401 039A  
                       u2321 0341                         u2241 0196                         u2225 0176  
                       u2161 011C                         u2145 00C2                         u2410 03A7  
                       u2330 0353                         u2250 01A9                         u2170 012F  
                       u2090 072D                         u2411 03A6                         u2331 0352  
                       u2251 01A8                         u2171 012E                         u2155 00E6  
                       u2091 072C                         u2420 03AC                         u2340 0366  
                       u2260 01C1                         u2180 0148                         u2421 03AB  
                       u2341 0365                         u2261 01C0                         u2181 0147  
                       u2430 03C6                         u2350 036C                         u2270 01CA  
                       u2190 0154                         u2431 03C5                         u2351 036B  
                       u2271 01C9                         u2191 0153                         u2520 04EC  
                       u2440 03CC                         u2360 0379                         u2280 01E2  
                       u2521 04EB                         u2441 03CB                         u2361 0378  
                       u2281 01E1                         u2185 0144                         u2530 07B3  
                       u2370 037F                         u2290 01EA                         u2531 07B2  
                       u2371 037E                         u2291 01E9                         u2700 0566  
                       u2540 07C6                         u2460 03E3                         u2380 0386  
                       u2701 0565                         u2605 06F2                         u2541 07C5  
                       u2461 03E2                         u2381 0385                         u2550 0651  
                       u2470 03F9                         u2454 03D3                         u2390 0395  
                       u2551 0650                         u2471 03F8                         u2455 03D1  
                       u2391 0394                         u2800 06B1                         u2720 0579  
                       u2640 0F95                         u2801 06B0                         u2721 0578  
                       u2641 0F94                         u2650 0F9B                         u2570 0676  
                       u2715 056A                         u2651 0F9A                         u2571 0675  
                       u2820 06C5                         u2740 058C                         u2660 077C  
                       u2564 065B                         u2580 06D6                         u2821 06C4  
                       u2805 06AD                         u2741 058B                         u2661 077B  
                       u2565 0659                         u2590 06EF                         u2815 06B9  
                       u2735 057C                         u2591 06EE                         u2760 05A1  
                       u2761 05A0                         u2745 0588                         u2770 0692  
                       u2690 0796                         u2771 0691                         u2755 0595  
                       u2691 0795                         u2675 0783                         u2907 02E4  
                       u1980 0283                         u2685 078A                         u2917 02F2  
                       u1981 0282                         u2837 0274                         u2790 06A5  
                       u1990 02C9                         u2791 06A4                         u2927 0300  
                       u1991 02C8                         u2847 028D                         u2785 0696  
                       u2937 030F                         u2857 029A                         u2947 031E  
                       u2867 02A5                         u2957 032E                         u2877 02B0  
                       u2967 0F8A                         u2887 02BE                         u2977 039E  
                       u2897 02D4                         i1l58 0F70                         u2987 0FEE  
                       u2997 0FFC               ??_dhtlib_start 0074                 __CFG_WRT$OFF 0000  
                       _bits 0026                         _main 0740                         btemp 007E  
               lcd_init@cols 004F                 lcd_init@rows 0050                         start 0011  
              __CFG_IESO$OFF 0000                __CFG_MCLRE$ON 0000               ??_lcd_iowrite4 0048  
             ??_lcd_iowrite8 0074                 lcd_ioset@pin 0075                 lcd_ioset@out 0074  
               lcd_send@data 004E                        ??_isr 0070            dhtlib_read@aindex 004A  
          dhtlib_read@bcount 004B                        ?_main 0070              ??_dhtlib_read11 004F  
              __CFG_WDTE$OFF 0000                        _ANSEL 009B                        _T1CON 0010  
            __end_of___lwdiv 05AB                        i1l151 0FE2                        i1l152 0FE2  
            __end_of___lwmod 06CF                        _TMR1H 000F                        _TMR1L 000E  
                      u35_20 0FD2                        u35_21 0FD1                        _PORTA 0005  
                      _TRISA 0085                        _TRISB 0086               __CFG_CCPMX$RB0 0000  
             __CFG_FCMEN$OFF 0000              __end_of_dpowers 051A              __end_of_isdigit 0FA1  
__size_of_tick_read_internal 0021               __CFG_BOREN$OFF 0000                        pclath 000A  
        dhtlib_read11@chksum 0053              __end_of_rowaddr 051E                        status 0003  
                      wtemp0 007E              __end_of_sprintf 025A               dhtlib_read11@s 0054  
            __initialization 0FB6                 __end_of_main 0773                       ??_main 006B  
              lcd_iowrite4@i 004B                       i1l1254 0FCC                       i1l1256 0FD2  
                     i1l1258 0FE0                       i1l1576 0F6D                       _OSCCON 008F  
             __CFG_PWRTE$OFF 0000                 ?_tick_update 0070         __size_of_dhtlib_init 0004  
       __size_of_dhtlib_read 00CF             __end_of_lcd_init 0332             __end_of_lcd_goto 07F2  
           __end_of_lcd_send 070A             __end_of_lcd_puts 04CF             __end_of_led_task 05F8  
                     ___wmul 0773                    ??___lwdiv 0074                    ??___lwmod 0075  
                     _lcd_on 0F7D                       _iomode 006F         __end_of_dhtlib_start 1000  
                     clrloop 07F3               lcd_init@iodata 0054             __end_of_tick_get 0FB6  
                  ??_isdigit 0074                       saved_w 007E         __end_of_lcd_iowrite4 068A  
       __end_of_lcd_iowrite8 0004                    ??_sprintf 0059      __end_of__initialization 0FC9  
             __pcstackCOMMON 0070                 __pidataBANK0 07FE                   _dht11_task 0401  
           lcd_iowrite4@data 004A             lcd_iowrite8@data 0070                led_task@ltime 002F  
         __size_of_lcd_ioset 004C                 dht11_task@hb 00A2                 dht11_task@tb 00A1  
               sprintf@width 0060                   __pbssBANK0 0020                   __pmaintext 0740  
                    ?___wmul 0048                   __pintentry 0004                      ?_lcd_on 0070  
         __size_of_tick_init 0010                   _lcd_ioinit 079F                   _lcdcolumns 006D  
                  ?_lcd_init 004F                    ?_lcd_goto 004F                    ?_lcd_send 004C  
                  ?_lcd_puts 004F                   __stringtab 0500                    ?_led_task 0070  
                  ?_tick_get 0048        __size_of_dhtlib_start 001D            __end_of_lcd_ioset 0644  
                ?_dht11_task 0070         __size_of_tick_update 0017              __size_of___wmul 002C  
                    ___lwdiv 055C                      ___lwmod 068A              __size_of_lcd_on 0010  
      __size_of_lcd_iowrite4 0046        __size_of_lcd_iowrite8 0001                      _lcdrows 006E  
                    _dpowers 0510        __end_of_dhtlib_read11 0740                      _isdigit 0F8D  
               __size_of_isr 0010                      _tickcnt 0076   __end_of_tick_read_internal 04F0  
                    _rowaddr 051A                      _sprintf 0013                   ??_lcd_init 0051  
                 ??_lcd_goto 0050                   ??_lcd_send 004D                   ??_lcd_puts 0076  
       end_of_initialization 0FC9                   ??_led_task 004C            __end_of_tick_init 0500  
               _dhtlib_start 0FE3               lcd_puts@string 004F                   ??_tick_get 0075  
                 _tickbuffer 0020              dht11_task@ltick 002B                 _lcd_iowrite4 0644  
               _lcd_iowrite8 0003                    _PORTAbits 0005                    _PORTBbits 0006  
                  _TRISAbits 0085                    _TRISBbits 0086                  ?_lcd_ioinit 0070  
        __size_of_dht11_task 00A8             dhtlib_read11@hum 004E                   lcd_send@rs 004C  
              ??_dhtlib_init 0074                ??_dhtlib_read 0048               __end_of___wmul 079F  
             __end_of_lcd_on 0F8D          start_initialization 0FB6                  __end_of_isr 0F7D  
        __size_of_lcd_ioinit 002B                     ??___wmul 0074          __end_of_dhtlib_init 07FE  
        __end_of_dhtlib_read 0401                     ??_lcd_on 004F                  __pdataBANK0 006D  
                __pbssCOMMON 0076                __pcstackBANK0 0048                __pcstackBANK1 00A0  
        __end_of__stringdata 055C            __size_of_lcd_init 00D8            __size_of_lcd_goto 0028  
          __size_of_lcd_send 003B                  sprintf@_val 0062                  sprintf@flag 005E  
          __size_of_lcd_puts 0026                  sprintf@prec 005D            __size_of_led_task 004D  
                  __pnvBANK0 006F             ___lwdiv@dividend 004A                 ??_dht11_task 0066  
                  __ptext900 0003                    __ptext901 0F8D                    __ptext902 0773  
                  __ptext903 055C                    __ptext904 068A                    __ptext905 0F6D  
                  __ptext906 0FCC                    __ptext907 0000                    __ptext890 07CA  
                  __ptext882 025A                    __ptext891 070A                    __ptext883 04F0  
                  __ptext892 0013                    __ptext884 07FA                    __ptext893 0332  
                  __ptext885 0F7D                    __ptext894 0FE3                    __ptext886 05AB  
                  __ptext895 04CF                    __ptext887 0401                    __ptext896 079F  
                  __ptext888 04A9                    __ptext897 06CF                    __ptext889 0FA1  
                  __ptext898 0644                    __ptext899 05F8            __size_of_tick_get 0015  
                   ?___lwdiv 0048                     ?___lwmod 004F                    _lcd_ioset 05F8  
                  __pstrings 0500                     ?_isdigit 0070             ___lwdiv@quotient 004D  
                   ?_sprintf 0054           __end_of_dht11_task 04A9            interrupt_function 0004  
             ___wmul@product 0074                  _dhtlib_init 07FA                  _dhtlib_read 0332  
                   _PIE1bits 008C           _tick_read_internal 04CF                ??_tick_update 0070  
                  _tick_init 04F0                     _PIR1bits 000C         dhtlib_read@tocounter 004C  
        ?_tick_read_internal 0070                   ?_lcd_ioset 0074                  __stringbase 050F  
                __stringdata 051E            ___wmul@multiplier 0048                 ??_lcd_ioinit 0048  
       ??_tick_read_internal 0074                   ?_tick_init 0070       __size_of_dhtlib_read11 0036  
         __end_of_lcd_ioinit 07CA             __size_of___lwdiv 004F             __size_of___lwmod 0045  
        __end_of_tick_update 0FE3           __end_of__stringtab 0510                  _isdigit$587 0074  
           __size_of_isdigit 0014              ___lwdiv@divisor 0048              ___lwdiv@counter 004C  
                   _lcd_init 025A                     _lcd_goto 07CA                     _lcd_send 06CF  
                   _dispctrl 0033                     _lcd_puts 04A9                     _led_task 05AB  
           __size_of_sprintf 0247                __size_of_main 0033            dht11_task@eResult 00A0  
                   clear_ram 07F2                     _tick_get 0FA1                  ??_lcd_ioset 0075  
                 _INTCONbits 000B                _dhtlib_read11 070A                     isdigit@c 0075  
                   intlevel1 0000                    sprintf@ap 005C                    sprintf@sp 005F  
           ___lwmod@dividend 0051                    stringcode 050A                  ??_tick_init 0074  
                _tick_update 0FCC                     sprintf@c 0065                     sprintf@f 0054  
             ?_dhtlib_read11 004E              ___lwmod@divisor 004F              ___lwmod@counter 0053  
                   stringdir 050A                     stringtab 0500           __CFG_FOSC$INTOSCIO 0000  
              ?_dhtlib_start 0070                 ?_dhtlib_init 0070                 ?_dhtlib_read 0070  
